	.arch armv7-a
	.eabi_attribute 28, 1
	.eabi_attribute 20, 1
	.eabi_attribute 21, 1
	.eabi_attribute 23, 3
	.eabi_attribute 24, 1
	.eabi_attribute 25, 1
	.eabi_attribute 26, 2
	.eabi_attribute 30, 6
	.eabi_attribute 34, 1
	.eabi_attribute 18, 4
	.file	"main.c"
	.text
	.align	2
	.arch armv7-a
	.syntax unified
	.arm
	.fpu vfpv3-d16
	.type	stbi__start_mem, %function
stbi__start_mem:
	@ args = 0, pretend = 0, frame = 16
	@ frame_needed = 1, uses_anonymous_args = 0
	@ link register save eliminated.
	str	fp, [sp, #-4]!
	add	fp, sp, #0
	sub	sp, sp, #20
	str	r0, [fp, #-8]
	str	r1, [fp, #-12]
	str	r2, [fp, #-16]
	ldr	r3, [fp, #-8]
	mov	r2, #0
	str	r2, [r3, #16]
	ldr	r3, [fp, #-8]
	mov	r2, #0
	str	r2, [r3, #32]
	ldr	r3, [fp, #-8]
	ldr	r2, [fp, #-12]
	str	r2, [r3, #176]
	ldr	r3, [fp, #-8]
	ldr	r2, [r3, #176]
	ldr	r3, [fp, #-8]
	str	r2, [r3, #168]
	ldr	r3, [fp, #-16]
	ldr	r2, [fp, #-12]
	add	r2, r2, r3
	ldr	r3, [fp, #-8]
	str	r2, [r3, #180]
	ldr	r3, [fp, #-8]
	ldr	r2, [r3, #180]
	ldr	r3, [fp, #-8]
	str	r2, [r3, #172]
	nop
	add	sp, fp, #0
	@ sp needed
	ldr	fp, [sp], #4
	bx	lr
	.size	stbi__start_mem, .-stbi__start_mem
	.align	2
	.syntax unified
	.arm
	.fpu vfpv3-d16
	.type	stbi__start_callbacks, %function
stbi__start_callbacks:
	@ args = 0, pretend = 0, frame = 16
	@ frame_needed = 1, uses_anonymous_args = 0
	push	{fp, lr}
	add	fp, sp, #4
	sub	sp, sp, #16
	str	r0, [fp, #-8]
	str	r1, [fp, #-12]
	str	r2, [fp, #-16]
	ldr	r3, [fp, #-8]
	ldr	r2, [fp, #-12]
	add	r3, r3, #16
	ldm	r2, {r0, r1, r2}
	stm	r3, {r0, r1, r2}
	ldr	r3, [fp, #-8]
	ldr	r2, [fp, #-16]
	str	r2, [r3, #28]
	ldr	r3, [fp, #-8]
	mov	r2, #128
	str	r2, [r3, #36]
	ldr	r3, [fp, #-8]
	mov	r2, #1
	str	r2, [r3, #32]
	ldr	r3, [fp, #-8]
	add	r2, r3, #40
	ldr	r3, [fp, #-8]
	str	r2, [r3, #176]
	ldr	r0, [fp, #-8]
	bl	stbi__refill_buffer
	ldr	r3, [fp, #-8]
	ldr	r2, [r3, #172]
	ldr	r3, [fp, #-8]
	str	r2, [r3, #180]
	nop
	sub	sp, fp, #4
	@ sp needed
	pop	{fp, pc}
	.size	stbi__start_callbacks, .-stbi__start_callbacks
	.align	2
	.syntax unified
	.arm
	.fpu vfpv3-d16
	.type	stbi__stdio_read, %function
stbi__stdio_read:
	@ args = 0, pretend = 0, frame = 16
	@ frame_needed = 1, uses_anonymous_args = 0
	push	{fp, lr}
	add	fp, sp, #4
	sub	sp, sp, #16
	str	r0, [fp, #-8]
	str	r1, [fp, #-12]
	str	r2, [fp, #-16]
	ldr	r2, [fp, #-16]
	ldr	r3, [fp, #-8]
	mov	r1, #1
	ldr	r0, [fp, #-12]
	bl	fread
	mov	r3, r0
	mov	r0, r3
	sub	sp, fp, #4
	@ sp needed
	pop	{fp, pc}
	.size	stbi__stdio_read, .-stbi__stdio_read
	.align	2
	.syntax unified
	.arm
	.fpu vfpv3-d16
	.type	stbi__stdio_skip, %function
stbi__stdio_skip:
	@ args = 0, pretend = 0, frame = 8
	@ frame_needed = 1, uses_anonymous_args = 0
	push	{fp, lr}
	add	fp, sp, #4
	sub	sp, sp, #8
	str	r0, [fp, #-8]
	str	r1, [fp, #-12]
	mov	r2, #1
	ldr	r1, [fp, #-12]
	ldr	r0, [fp, #-8]
	bl	fseek
	nop
	sub	sp, fp, #4
	@ sp needed
	pop	{fp, pc}
	.size	stbi__stdio_skip, .-stbi__stdio_skip
	.align	2
	.syntax unified
	.arm
	.fpu vfpv3-d16
	.type	stbi__stdio_eof, %function
stbi__stdio_eof:
	@ args = 0, pretend = 0, frame = 8
	@ frame_needed = 1, uses_anonymous_args = 0
	push	{fp, lr}
	add	fp, sp, #4
	sub	sp, sp, #8
	str	r0, [fp, #-8]
	ldr	r0, [fp, #-8]
	bl	feof
	mov	r3, r0
	mov	r0, r3
	sub	sp, fp, #4
	@ sp needed
	pop	{fp, pc}
	.size	stbi__stdio_eof, .-stbi__stdio_eof
	.data
	.align	2
	.type	stbi__stdio_callbacks, %object
	.size	stbi__stdio_callbacks, 12
stbi__stdio_callbacks:
	.word	stbi__stdio_read
	.word	stbi__stdio_skip
	.word	stbi__stdio_eof
	.text
	.align	2
	.syntax unified
	.arm
	.fpu vfpv3-d16
	.type	stbi__start_file, %function
stbi__start_file:
	@ args = 0, pretend = 0, frame = 8
	@ frame_needed = 1, uses_anonymous_args = 0
	push	{fp, lr}
	add	fp, sp, #4
	sub	sp, sp, #8
	str	r0, [fp, #-8]
	str	r1, [fp, #-12]
	ldr	r2, [fp, #-12]
	movw	r1, #:lower16:stbi__stdio_callbacks
	movt	r1, #:upper16:stbi__stdio_callbacks
	ldr	r0, [fp, #-8]
	bl	stbi__start_callbacks
	nop
	sub	sp, fp, #4
	@ sp needed
	pop	{fp, pc}
	.size	stbi__start_file, .-stbi__start_file
	.align	2
	.syntax unified
	.arm
	.fpu vfpv3-d16
	.type	stbi__rewind, %function
stbi__rewind:
	@ args = 0, pretend = 0, frame = 8
	@ frame_needed = 1, uses_anonymous_args = 0
	@ link register save eliminated.
	str	fp, [sp, #-4]!
	add	fp, sp, #0
	sub	sp, sp, #12
	str	r0, [fp, #-8]
	ldr	r3, [fp, #-8]
	ldr	r2, [r3, #176]
	ldr	r3, [fp, #-8]
	str	r2, [r3, #168]
	ldr	r3, [fp, #-8]
	ldr	r2, [r3, #180]
	ldr	r3, [fp, #-8]
	str	r2, [r3, #172]
	nop
	add	sp, fp, #0
	@ sp needed
	ldr	fp, [sp], #4
	bx	lr
	.size	stbi__rewind, .-stbi__rewind
	.section	.tbss,"awT",%nobits
	.align	2
	.type	stbi__g_failure_reason, %object
	.size	stbi__g_failure_reason, 4
stbi__g_failure_reason:
	.space	4
	.text
	.align	2
	.global	stbi_failure_reason
	.syntax unified
	.arm
	.fpu vfpv3-d16
	.type	stbi_failure_reason, %function
stbi_failure_reason:
	@ args = 0, pretend = 0, frame = 0
	@ frame_needed = 1, uses_anonymous_args = 0
	@ link register save eliminated.
	str	fp, [sp, #-4]!
	add	fp, sp, #0
	mrc	p15, 0, r3, c13, c0, 3	@ load_tp_hard
	ldr	r2, .L12
	ldr	r3, [r3, r2]
	mov	r0, r3
	add	sp, fp, #0
	@ sp needed
	ldr	fp, [sp], #4
	bx	lr
.L13:
	.align	2
.L12:
	.word	stbi__g_failure_reason(tpoff)
	.size	stbi_failure_reason, .-stbi_failure_reason
	.align	2
	.syntax unified
	.arm
	.fpu vfpv3-d16
	.type	stbi__malloc, %function
stbi__malloc:
	@ args = 0, pretend = 0, frame = 8
	@ frame_needed = 1, uses_anonymous_args = 0
	push	{fp, lr}
	add	fp, sp, #4
	sub	sp, sp, #8
	str	r0, [fp, #-8]
	ldr	r0, [fp, #-8]
	bl	malloc
	mov	r3, r0
	mov	r0, r3
	sub	sp, fp, #4
	@ sp needed
	pop	{fp, pc}
	.size	stbi__malloc, .-stbi__malloc
	.align	2
	.syntax unified
	.arm
	.fpu vfpv3-d16
	.type	stbi__addsizes_valid, %function
stbi__addsizes_valid:
	@ args = 0, pretend = 0, frame = 8
	@ frame_needed = 1, uses_anonymous_args = 0
	@ link register save eliminated.
	str	fp, [sp, #-4]!
	add	fp, sp, #0
	sub	sp, sp, #12
	str	r0, [fp, #-8]
	str	r1, [fp, #-12]
	ldr	r3, [fp, #-12]
	cmp	r3, #0
	bge	.L17
	mov	r3, #0
	b	.L18
.L17:
	ldr	r2, [fp, #-12]
	movw	r3, #65535
	movt	r3, 32767
	sub	r3, r3, r2
	ldr	r2, [fp, #-8]
	cmp	r2, r3
	movle	r3, #1
	movgt	r3, #0
	uxtb	r3, r3
.L18:
	mov	r0, r3
	add	sp, fp, #0
	@ sp needed
	ldr	fp, [sp], #4
	bx	lr
	.size	stbi__addsizes_valid, .-stbi__addsizes_valid
	.global	__aeabi_idiv
	.align	2
	.syntax unified
	.arm
	.fpu vfpv3-d16
	.type	stbi__mul2sizes_valid, %function
stbi__mul2sizes_valid:
	@ args = 0, pretend = 0, frame = 8
	@ frame_needed = 1, uses_anonymous_args = 0
	push	{fp, lr}
	add	fp, sp, #4
	sub	sp, sp, #8
	str	r0, [fp, #-8]
	str	r1, [fp, #-12]
	ldr	r3, [fp, #-8]
	cmp	r3, #0
	blt	.L20
	ldr	r3, [fp, #-12]
	cmp	r3, #0
	bge	.L21
.L20:
	mov	r3, #0
	b	.L22
.L21:
	ldr	r3, [fp, #-12]
	cmp	r3, #0
	bne	.L23
	mov	r3, #1
	b	.L22
.L23:
	ldr	r1, [fp, #-12]
	mvn	r0, #-2147483648
	bl	__aeabi_idiv
	mov	r3, r0
	mov	r2, r3
	ldr	r3, [fp, #-8]
	cmp	r3, r2
	movle	r3, #1
	movgt	r3, #0
	uxtb	r3, r3
.L22:
	mov	r0, r3
	sub	sp, fp, #4
	@ sp needed
	pop	{fp, pc}
	.size	stbi__mul2sizes_valid, .-stbi__mul2sizes_valid
	.align	2
	.syntax unified
	.arm
	.fpu vfpv3-d16
	.type	stbi__mad2sizes_valid, %function
stbi__mad2sizes_valid:
	@ args = 0, pretend = 0, frame = 16
	@ frame_needed = 1, uses_anonymous_args = 0
	push	{fp, lr}
	add	fp, sp, #4
	sub	sp, sp, #16
	str	r0, [fp, #-8]
	str	r1, [fp, #-12]
	str	r2, [fp, #-16]
	ldr	r1, [fp, #-12]
	ldr	r0, [fp, #-8]
	bl	stbi__mul2sizes_valid
	mov	r3, r0
	cmp	r3, #0
	beq	.L25
	ldr	r3, [fp, #-8]
	ldr	r2, [fp, #-12]
	mul	r3, r2, r3
	ldr	r1, [fp, #-16]
	mov	r0, r3
	bl	stbi__addsizes_valid
	mov	r3, r0
	cmp	r3, #0
	beq	.L25
	mov	r3, #1
	b	.L27
.L25:
	mov	r3, #0
.L27:
	mov	r0, r3
	sub	sp, fp, #4
	@ sp needed
	pop	{fp, pc}
	.size	stbi__mad2sizes_valid, .-stbi__mad2sizes_valid
	.align	2
	.syntax unified
	.arm
	.fpu vfpv3-d16
	.type	stbi__mad3sizes_valid, %function
stbi__mad3sizes_valid:
	@ args = 0, pretend = 0, frame = 16
	@ frame_needed = 1, uses_anonymous_args = 0
	push	{fp, lr}
	add	fp, sp, #4
	sub	sp, sp, #16
	str	r0, [fp, #-8]
	str	r1, [fp, #-12]
	str	r2, [fp, #-16]
	str	r3, [fp, #-20]
	ldr	r1, [fp, #-12]
	ldr	r0, [fp, #-8]
	bl	stbi__mul2sizes_valid
	mov	r3, r0
	cmp	r3, #0
	beq	.L29
	ldr	r3, [fp, #-8]
	ldr	r2, [fp, #-12]
	mul	r3, r2, r3
	ldr	r1, [fp, #-16]
	mov	r0, r3
	bl	stbi__mul2sizes_valid
	mov	r3, r0
	cmp	r3, #0
	beq	.L29
	ldr	r3, [fp, #-8]
	ldr	r2, [fp, #-12]
	mul	r3, r2, r3
	ldr	r2, [fp, #-16]
	mul	r3, r2, r3
	ldr	r1, [fp, #-20]
	mov	r0, r3
	bl	stbi__addsizes_valid
	mov	r3, r0
	cmp	r3, #0
	beq	.L29
	mov	r3, #1
	b	.L31
.L29:
	mov	r3, #0
.L31:
	mov	r0, r3
	sub	sp, fp, #4
	@ sp needed
	pop	{fp, pc}
	.size	stbi__mad3sizes_valid, .-stbi__mad3sizes_valid
	.align	2
	.syntax unified
	.arm
	.fpu vfpv3-d16
	.type	stbi__mad4sizes_valid, %function
stbi__mad4sizes_valid:
	@ args = 4, pretend = 0, frame = 16
	@ frame_needed = 1, uses_anonymous_args = 0
	push	{fp, lr}
	add	fp, sp, #4
	sub	sp, sp, #16
	str	r0, [fp, #-8]
	str	r1, [fp, #-12]
	str	r2, [fp, #-16]
	str	r3, [fp, #-20]
	ldr	r1, [fp, #-12]
	ldr	r0, [fp, #-8]
	bl	stbi__mul2sizes_valid
	mov	r3, r0
	cmp	r3, #0
	beq	.L33
	ldr	r3, [fp, #-8]
	ldr	r2, [fp, #-12]
	mul	r3, r2, r3
	ldr	r1, [fp, #-16]
	mov	r0, r3
	bl	stbi__mul2sizes_valid
	mov	r3, r0
	cmp	r3, #0
	beq	.L33
	ldr	r3, [fp, #-8]
	ldr	r2, [fp, #-12]
	mul	r3, r2, r3
	ldr	r2, [fp, #-16]
	mul	r3, r2, r3
	ldr	r1, [fp, #-20]
	mov	r0, r3
	bl	stbi__mul2sizes_valid
	mov	r3, r0
	cmp	r3, #0
	beq	.L33
	ldr	r3, [fp, #-8]
	ldr	r2, [fp, #-12]
	mul	r3, r2, r3
	ldr	r2, [fp, #-16]
	mul	r3, r2, r3
	ldr	r2, [fp, #-20]
	mul	r3, r2, r3
	ldr	r1, [fp, #4]
	mov	r0, r3
	bl	stbi__addsizes_valid
	mov	r3, r0
	cmp	r3, #0
	beq	.L33
	mov	r3, #1
	b	.L35
.L33:
	mov	r3, #0
.L35:
	mov	r0, r3
	sub	sp, fp, #4
	@ sp needed
	pop	{fp, pc}
	.size	stbi__mad4sizes_valid, .-stbi__mad4sizes_valid
	.align	2
	.syntax unified
	.arm
	.fpu vfpv3-d16
	.type	stbi__malloc_mad2, %function
stbi__malloc_mad2:
	@ args = 0, pretend = 0, frame = 16
	@ frame_needed = 1, uses_anonymous_args = 0
	push	{fp, lr}
	add	fp, sp, #4
	sub	sp, sp, #16
	str	r0, [fp, #-8]
	str	r1, [fp, #-12]
	str	r2, [fp, #-16]
	ldr	r2, [fp, #-16]
	ldr	r1, [fp, #-12]
	ldr	r0, [fp, #-8]
	bl	stbi__mad2sizes_valid
	mov	r3, r0
	cmp	r3, #0
	bne	.L37
	mov	r3, #0
	b	.L38
.L37:
	ldr	r3, [fp, #-8]
	ldr	r2, [fp, #-12]
	mul	r2, r2, r3
	ldr	r3, [fp, #-16]
	add	r3, r2, r3
	mov	r0, r3
	bl	stbi__malloc
	mov	r3, r0
.L38:
	mov	r0, r3
	sub	sp, fp, #4
	@ sp needed
	pop	{fp, pc}
	.size	stbi__malloc_mad2, .-stbi__malloc_mad2
	.align	2
	.syntax unified
	.arm
	.fpu vfpv3-d16
	.type	stbi__malloc_mad3, %function
stbi__malloc_mad3:
	@ args = 0, pretend = 0, frame = 16
	@ frame_needed = 1, uses_anonymous_args = 0
	push	{fp, lr}
	add	fp, sp, #4
	sub	sp, sp, #16
	str	r0, [fp, #-8]
	str	r1, [fp, #-12]
	str	r2, [fp, #-16]
	str	r3, [fp, #-20]
	ldr	r3, [fp, #-20]
	ldr	r2, [fp, #-16]
	ldr	r1, [fp, #-12]
	ldr	r0, [fp, #-8]
	bl	stbi__mad3sizes_valid
	mov	r3, r0
	cmp	r3, #0
	bne	.L40
	mov	r3, #0
	b	.L41
.L40:
	ldr	r3, [fp, #-8]
	ldr	r2, [fp, #-12]
	mul	r3, r2, r3
	ldr	r2, [fp, #-16]
	mul	r2, r2, r3
	ldr	r3, [fp, #-20]
	add	r3, r2, r3
	mov	r0, r3
	bl	stbi__malloc
	mov	r3, r0
.L41:
	mov	r0, r3
	sub	sp, fp, #4
	@ sp needed
	pop	{fp, pc}
	.size	stbi__malloc_mad3, .-stbi__malloc_mad3
	.align	2
	.syntax unified
	.arm
	.fpu vfpv3-d16
	.type	stbi__malloc_mad4, %function
stbi__malloc_mad4:
	@ args = 4, pretend = 0, frame = 16
	@ frame_needed = 1, uses_anonymous_args = 0
	push	{fp, lr}
	add	fp, sp, #4
	sub	sp, sp, #24
	str	r0, [fp, #-8]
	str	r1, [fp, #-12]
	str	r2, [fp, #-16]
	str	r3, [fp, #-20]
	ldr	r3, [fp, #4]
	str	r3, [sp]
	ldr	r3, [fp, #-20]
	ldr	r2, [fp, #-16]
	ldr	r1, [fp, #-12]
	ldr	r0, [fp, #-8]
	bl	stbi__mad4sizes_valid
	mov	r3, r0
	cmp	r3, #0
	bne	.L43
	mov	r3, #0
	b	.L44
.L43:
	ldr	r3, [fp, #-8]
	ldr	r2, [fp, #-12]
	mul	r3, r2, r3
	ldr	r2, [fp, #-16]
	mul	r3, r2, r3
	ldr	r2, [fp, #-20]
	mul	r2, r2, r3
	ldr	r3, [fp, #4]
	add	r3, r2, r3
	mov	r0, r3
	bl	stbi__malloc
	mov	r3, r0
.L44:
	mov	r0, r3
	sub	sp, fp, #4
	@ sp needed
	pop	{fp, pc}
	.size	stbi__malloc_mad4, .-stbi__malloc_mad4
	.align	2
	.global	stbi_image_free
	.syntax unified
	.arm
	.fpu vfpv3-d16
	.type	stbi_image_free, %function
stbi_image_free:
	@ args = 0, pretend = 0, frame = 8
	@ frame_needed = 1, uses_anonymous_args = 0
	push	{fp, lr}
	add	fp, sp, #4
	sub	sp, sp, #8
	str	r0, [fp, #-8]
	ldr	r0, [fp, #-8]
	bl	free
	nop
	sub	sp, fp, #4
	@ sp needed
	pop	{fp, pc}
	.size	stbi_image_free, .-stbi_image_free
	.local	stbi__vertically_flip_on_load_global
	.comm	stbi__vertically_flip_on_load_global,4,4
	.align	2
	.global	stbi_set_flip_vertically_on_load
	.syntax unified
	.arm
	.fpu vfpv3-d16
	.type	stbi_set_flip_vertically_on_load, %function
stbi_set_flip_vertically_on_load:
	@ args = 0, pretend = 0, frame = 8
	@ frame_needed = 1, uses_anonymous_args = 0
	@ link register save eliminated.
	str	fp, [sp, #-4]!
	add	fp, sp, #0
	sub	sp, sp, #12
	str	r0, [fp, #-8]
	movw	r3, #:lower16:stbi__vertically_flip_on_load_global
	movt	r3, #:upper16:stbi__vertically_flip_on_load_global
	ldr	r2, [fp, #-8]
	str	r2, [r3]
	nop
	add	sp, fp, #0
	@ sp needed
	ldr	fp, [sp], #4
	bx	lr
	.size	stbi_set_flip_vertically_on_load, .-stbi_set_flip_vertically_on_load
	.section	.tbss
	.align	2
	.type	stbi__vertically_flip_on_load_local, %object
	.size	stbi__vertically_flip_on_load_local, 4
stbi__vertically_flip_on_load_local:
	.space	4
	.align	2
	.type	stbi__vertically_flip_on_load_set, %object
	.size	stbi__vertically_flip_on_load_set, 4
stbi__vertically_flip_on_load_set:
	.space	4
	.text
	.align	2
	.global	stbi_set_flip_vertically_on_load_thread
	.syntax unified
	.arm
	.fpu vfpv3-d16
	.type	stbi_set_flip_vertically_on_load_thread, %function
stbi_set_flip_vertically_on_load_thread:
	@ args = 0, pretend = 0, frame = 8
	@ frame_needed = 1, uses_anonymous_args = 0
	@ link register save eliminated.
	str	fp, [sp, #-4]!
	add	fp, sp, #0
	sub	sp, sp, #12
	str	r0, [fp, #-8]
	mrc	p15, 0, r3, c13, c0, 3	@ load_tp_hard
	ldr	r1, .L48
	ldr	r2, [fp, #-8]
	str	r2, [r3, r1]
	mrc	p15, 0, r3, c13, c0, 3	@ load_tp_hard
	ldr	r2, .L48+4
	mov	r1, #1
	str	r1, [r3, r2]
	nop
	add	sp, fp, #0
	@ sp needed
	ldr	fp, [sp], #4
	bx	lr
.L49:
	.align	2
.L48:
	.word	stbi__vertically_flip_on_load_local(tpoff)
	.word	stbi__vertically_flip_on_load_set(tpoff)
	.size	stbi_set_flip_vertically_on_load_thread, .-stbi_set_flip_vertically_on_load_thread
	.align	2
	.syntax unified
	.arm
	.fpu vfpv3-d16
	.type	stbi__load_main, %function
stbi__load_main:
	@ args = 12, pretend = 0, frame = 24
	@ frame_needed = 1, uses_anonymous_args = 0
	push	{fp, lr}
	add	fp, sp, #4
	sub	sp, sp, #40
	str	r0, [fp, #-16]
	str	r1, [fp, #-20]
	str	r2, [fp, #-24]
	str	r3, [fp, #-28]
	mov	r2, #12
	mov	r1, #0
	ldr	r0, [fp, #8]
	bl	memset
	ldr	r3, [fp, #8]
	mov	r2, #8
	str	r2, [r3]
	ldr	r3, [fp, #8]
	mov	r2, #0
	str	r2, [r3, #8]
	ldr	r3, [fp, #8]
	mov	r2, #0
	str	r2, [r3, #4]
	ldr	r0, [fp, #-16]
	bl	stbi__jpeg_test
	mov	r3, r0
	cmp	r3, #0
	beq	.L51
	ldr	r3, [fp, #8]
	str	r3, [sp, #4]
	ldr	r3, [fp, #4]
	str	r3, [sp]
	ldr	r3, [fp, #-28]
	ldr	r2, [fp, #-24]
	ldr	r1, [fp, #-20]
	ldr	r0, [fp, #-16]
	bl	stbi__jpeg_load
	mov	r3, r0
	b	.L52
.L51:
	ldr	r0, [fp, #-16]
	bl	stbi__png_test
	mov	r3, r0
	cmp	r3, #0
	beq	.L53
	ldr	r3, [fp, #8]
	str	r3, [sp, #4]
	ldr	r3, [fp, #4]
	str	r3, [sp]
	ldr	r3, [fp, #-28]
	ldr	r2, [fp, #-24]
	ldr	r1, [fp, #-20]
	ldr	r0, [fp, #-16]
	bl	stbi__png_load
	mov	r3, r0
	b	.L52
.L53:
	ldr	r0, [fp, #-16]
	bl	stbi__bmp_test
	mov	r3, r0
	cmp	r3, #0
	beq	.L54
	ldr	r3, [fp, #8]
	str	r3, [sp, #4]
	ldr	r3, [fp, #4]
	str	r3, [sp]
	ldr	r3, [fp, #-28]
	ldr	r2, [fp, #-24]
	ldr	r1, [fp, #-20]
	ldr	r0, [fp, #-16]
	bl	stbi__bmp_load
	mov	r3, r0
	b	.L52
.L54:
	ldr	r0, [fp, #-16]
	bl	stbi__gif_test
	mov	r3, r0
	cmp	r3, #0
	beq	.L55
	ldr	r3, [fp, #8]
	str	r3, [sp, #4]
	ldr	r3, [fp, #4]
	str	r3, [sp]
	ldr	r3, [fp, #-28]
	ldr	r2, [fp, #-24]
	ldr	r1, [fp, #-20]
	ldr	r0, [fp, #-16]
	bl	stbi__gif_load
	mov	r3, r0
	b	.L52
.L55:
	ldr	r0, [fp, #-16]
	bl	stbi__psd_test
	mov	r3, r0
	cmp	r3, #0
	beq	.L56
	ldr	r3, [fp, #12]
	str	r3, [sp, #8]
	ldr	r3, [fp, #8]
	str	r3, [sp, #4]
	ldr	r3, [fp, #4]
	str	r3, [sp]
	ldr	r3, [fp, #-28]
	ldr	r2, [fp, #-24]
	ldr	r1, [fp, #-20]
	ldr	r0, [fp, #-16]
	bl	stbi__psd_load
	mov	r3, r0
	b	.L52
.L56:
	ldr	r0, [fp, #-16]
	bl	stbi__pic_test
	mov	r3, r0
	cmp	r3, #0
	beq	.L57
	ldr	r3, [fp, #8]
	str	r3, [sp, #4]
	ldr	r3, [fp, #4]
	str	r3, [sp]
	ldr	r3, [fp, #-28]
	ldr	r2, [fp, #-24]
	ldr	r1, [fp, #-20]
	ldr	r0, [fp, #-16]
	bl	stbi__pic_load
	mov	r3, r0
	b	.L52
.L57:
	ldr	r0, [fp, #-16]
	bl	stbi__pnm_test
	mov	r3, r0
	cmp	r3, #0
	beq	.L58
	ldr	r3, [fp, #8]
	str	r3, [sp, #4]
	ldr	r3, [fp, #4]
	str	r3, [sp]
	ldr	r3, [fp, #-28]
	ldr	r2, [fp, #-24]
	ldr	r1, [fp, #-20]
	ldr	r0, [fp, #-16]
	bl	stbi__pnm_load
	mov	r3, r0
	b	.L52
.L58:
	ldr	r0, [fp, #-16]
	bl	stbi__hdr_test
	mov	r3, r0
	cmp	r3, #0
	beq	.L59
	ldr	r3, [fp, #8]
	str	r3, [sp, #4]
	ldr	r3, [fp, #4]
	str	r3, [sp]
	ldr	r3, [fp, #-28]
	ldr	r2, [fp, #-24]
	ldr	r1, [fp, #-20]
	ldr	r0, [fp, #-16]
	bl	stbi__hdr_load
	str	r0, [fp, #-8]
	ldr	r3, [fp, #-20]
	ldr	r1, [r3]
	ldr	r3, [fp, #-24]
	ldr	r2, [r3]
	ldr	r3, [fp, #4]
	cmp	r3, #0
	bne	.L60
	ldr	r3, [fp, #-28]
	ldr	r3, [r3]
	b	.L61
.L60:
	ldr	r3, [fp, #4]
.L61:
	ldr	r0, [fp, #-8]
	bl	stbi__hdr_to_ldr
	mov	r3, r0
	b	.L52
.L59:
	ldr	r0, [fp, #-16]
	bl	stbi__tga_test
	mov	r3, r0
	cmp	r3, #0
	beq	.L62
	ldr	r3, [fp, #8]
	str	r3, [sp, #4]
	ldr	r3, [fp, #4]
	str	r3, [sp]
	ldr	r3, [fp, #-28]
	ldr	r2, [fp, #-24]
	ldr	r1, [fp, #-20]
	ldr	r0, [fp, #-16]
	bl	stbi__tga_load
	mov	r3, r0
	b	.L52
.L62:
	mov	r3, #0
.L52:
	mov	r0, r3
	sub	sp, fp, #4
	@ sp needed
	pop	{fp, pc}
	.size	stbi__load_main, .-stbi__load_main
	.align	2
	.syntax unified
	.arm
	.fpu vfpv3-d16
	.type	stbi__convert_16_to_8, %function
stbi__convert_16_to_8:
	@ args = 0, pretend = 0, frame = 32
	@ frame_needed = 1, uses_anonymous_args = 0
	push	{fp, lr}
	add	fp, sp, #4
	sub	sp, sp, #32
	str	r0, [fp, #-24]
	str	r1, [fp, #-28]
	str	r2, [fp, #-32]
	str	r3, [fp, #-36]
	ldr	r3, [fp, #-28]
	ldr	r2, [fp, #-32]
	mul	r2, r2, r3
	ldr	r3, [fp, #-36]
	mul	r3, r2, r3
	str	r3, [fp, #-12]
	ldr	r3, [fp, #-12]
	mov	r0, r3
	bl	stbi__malloc
	str	r0, [fp, #-16]
	ldr	r3, [fp, #-16]
	cmp	r3, #0
	bne	.L64
	mov	r3, #0
	b	.L65
.L64:
	mov	r3, #0
	str	r3, [fp, #-8]
	b	.L66
.L67:
	ldr	r3, [fp, #-8]
	lsl	r3, r3, #1
	ldr	r2, [fp, #-24]
	add	r3, r2, r3
	ldrh	r3, [r3]
	lsr	r3, r3, #8
	uxth	r1, r3
	ldr	r3, [fp, #-8]
	ldr	r2, [fp, #-16]
	add	r3, r2, r3
	uxtb	r2, r1
	strb	r2, [r3]
	ldr	r3, [fp, #-8]
	add	r3, r3, #1
	str	r3, [fp, #-8]
.L66:
	ldr	r2, [fp, #-8]
	ldr	r3, [fp, #-12]
	cmp	r2, r3
	blt	.L67
	ldr	r0, [fp, #-24]
	bl	free
	ldr	r3, [fp, #-16]
.L65:
	mov	r0, r3
	sub	sp, fp, #4
	@ sp needed
	pop	{fp, pc}
	.size	stbi__convert_16_to_8, .-stbi__convert_16_to_8
	.align	2
	.syntax unified
	.arm
	.fpu vfpv3-d16
	.type	stbi__convert_8_to_16, %function
stbi__convert_8_to_16:
	@ args = 0, pretend = 0, frame = 32
	@ frame_needed = 1, uses_anonymous_args = 0
	push	{fp, lr}
	add	fp, sp, #4
	sub	sp, sp, #32
	str	r0, [fp, #-24]
	str	r1, [fp, #-28]
	str	r2, [fp, #-32]
	str	r3, [fp, #-36]
	ldr	r3, [fp, #-28]
	ldr	r2, [fp, #-32]
	mul	r2, r2, r3
	ldr	r3, [fp, #-36]
	mul	r3, r2, r3
	str	r3, [fp, #-12]
	ldr	r3, [fp, #-12]
	lsl	r3, r3, #1
	mov	r0, r3
	bl	stbi__malloc
	str	r0, [fp, #-16]
	ldr	r3, [fp, #-16]
	cmp	r3, #0
	bne	.L69
	mov	r3, #0
	b	.L70
.L69:
	mov	r3, #0
	str	r3, [fp, #-8]
	b	.L71
.L72:
	ldr	r3, [fp, #-8]
	ldr	r2, [fp, #-24]
	add	r3, r2, r3
	ldrb	r3, [r3]	@ zero_extendqisi2
	uxth	r3, r3
	lsl	r3, r3, #8
	uxth	r1, r3
	ldr	r3, [fp, #-8]
	ldr	r2, [fp, #-24]
	add	r3, r2, r3
	ldrb	r3, [r3]	@ zero_extendqisi2
	uxth	r2, r3
	ldr	r3, [fp, #-8]
	lsl	r3, r3, #1
	ldr	r0, [fp, #-16]
	add	r3, r0, r3
	add	r2, r1, r2
	uxth	r2, r2
	strh	r2, [r3]	@ movhi
	ldr	r3, [fp, #-8]
	add	r3, r3, #1
	str	r3, [fp, #-8]
.L71:
	ldr	r2, [fp, #-8]
	ldr	r3, [fp, #-12]
	cmp	r2, r3
	blt	.L72
	ldr	r0, [fp, #-24]
	bl	free
	ldr	r3, [fp, #-16]
.L70:
	mov	r0, r3
	sub	sp, fp, #4
	@ sp needed
	pop	{fp, pc}
	.size	stbi__convert_8_to_16, .-stbi__convert_8_to_16
	.align	2
	.syntax unified
	.arm
	.fpu vfpv3-d16
	.type	stbi__vertical_flip, %function
stbi__vertical_flip:
	@ args = 0, pretend = 0, frame = 2096
	@ frame_needed = 1, uses_anonymous_args = 0
	push	{fp, lr}
	add	fp, sp, #4
	sub	sp, sp, #2096
	str	r0, [fp, #-2088]
	str	r1, [fp, #-2092]
	str	r2, [fp, #-2096]
	str	r3, [fp, #-2100]
	ldr	r3, [fp, #-2092]
	ldr	r2, [fp, #-2100]
	mul	r3, r2, r3
	str	r3, [fp, #-24]
	ldr	r3, [fp, #-2088]
	str	r3, [fp, #-28]
	mov	r3, #0
	str	r3, [fp, #-8]
	b	.L74
.L77:
	ldr	r3, [fp, #-8]
	ldr	r2, [fp, #-24]
	mul	r3, r2, r3
	ldr	r2, [fp, #-28]
	add	r3, r2, r3
	str	r3, [fp, #-12]
	ldr	r2, [fp, #-2096]
	ldr	r3, [fp, #-8]
	sub	r3, r2, r3
	sub	r3, r3, #1
	mov	r2, r3
	ldr	r3, [fp, #-24]
	mul	r3, r3, r2
	ldr	r2, [fp, #-28]
	add	r3, r2, r3
	str	r3, [fp, #-16]
	ldr	r3, [fp, #-24]
	str	r3, [fp, #-20]
	b	.L75
.L76:
	ldr	r3, [fp, #-20]
	cmp	r3, #2048
	movcc	r3, r3
	movcs	r3, #2048
	str	r3, [fp, #-32]
	sub	r3, fp, #2064
	sub	r3, r3, #4
	sub	r3, r3, #12
	ldr	r2, [fp, #-32]
	ldr	r1, [fp, #-12]
	mov	r0, r3
	bl	memcpy
	ldr	r2, [fp, #-32]
	ldr	r1, [fp, #-16]
	ldr	r0, [fp, #-12]
	bl	memcpy
	sub	r3, fp, #2064
	sub	r3, r3, #4
	sub	r3, r3, #12
	ldr	r2, [fp, #-32]
	mov	r1, r3
	ldr	r0, [fp, #-16]
	bl	memcpy
	ldr	r2, [fp, #-12]
	ldr	r3, [fp, #-32]
	add	r3, r2, r3
	str	r3, [fp, #-12]
	ldr	r2, [fp, #-16]
	ldr	r3, [fp, #-32]
	add	r3, r2, r3
	str	r3, [fp, #-16]
	ldr	r2, [fp, #-20]
	ldr	r3, [fp, #-32]
	sub	r3, r2, r3
	str	r3, [fp, #-20]
.L75:
	ldr	r3, [fp, #-20]
	cmp	r3, #0
	bne	.L76
	ldr	r3, [fp, #-8]
	add	r3, r3, #1
	str	r3, [fp, #-8]
.L74:
	ldr	r3, [fp, #-2096]
	asr	r3, r3, #1
	ldr	r2, [fp, #-8]
	cmp	r2, r3
	blt	.L77
	nop
	sub	sp, fp, #4
	@ sp needed
	pop	{fp, pc}
	.size	stbi__vertical_flip, .-stbi__vertical_flip
	.align	2
	.syntax unified
	.arm
	.fpu vfpv3-d16
	.type	stbi__vertical_flip_slices, %function
stbi__vertical_flip_slices:
	@ args = 4, pretend = 0, frame = 32
	@ frame_needed = 1, uses_anonymous_args = 0
	push	{fp, lr}
	add	fp, sp, #4
	sub	sp, sp, #32
	str	r0, [fp, #-24]
	str	r1, [fp, #-28]
	str	r2, [fp, #-32]
	str	r3, [fp, #-36]
	ldr	r3, [fp, #-28]
	ldr	r2, [fp, #-32]
	mul	r2, r2, r3
	ldr	r3, [fp, #4]
	mul	r3, r2, r3
	str	r3, [fp, #-16]
	ldr	r3, [fp, #-24]
	str	r3, [fp, #-12]
	mov	r3, #0
	str	r3, [fp, #-8]
	b	.L79
.L80:
	ldr	r3, [fp, #4]
	ldr	r2, [fp, #-32]
	ldr	r1, [fp, #-28]
	ldr	r0, [fp, #-12]
	bl	stbi__vertical_flip
	ldr	r3, [fp, #-16]
	ldr	r2, [fp, #-12]
	add	r3, r2, r3
	str	r3, [fp, #-12]
	ldr	r3, [fp, #-8]
	add	r3, r3, #1
	str	r3, [fp, #-8]
.L79:
	ldr	r2, [fp, #-8]
	ldr	r3, [fp, #-36]
	cmp	r2, r3
	blt	.L80
	nop
	sub	sp, fp, #4
	@ sp needed
	pop	{fp, pc}
	.size	stbi__vertical_flip_slices, .-stbi__vertical_flip_slices
	.align	2
	.syntax unified
	.arm
	.fpu vfpv3-d16
	.type	stbi__load_and_postprocess_8bit, %function
stbi__load_and_postprocess_8bit:
	@ args = 4, pretend = 0, frame = 40
	@ frame_needed = 1, uses_anonymous_args = 0
	push	{fp, lr}
	add	fp, sp, #4
	sub	sp, sp, #56
	str	r0, [fp, #-32]
	str	r1, [fp, #-36]
	str	r2, [fp, #-40]
	str	r3, [fp, #-44]
	mov	r3, #8
	str	r3, [sp, #8]
	sub	r3, fp, #24
	str	r3, [sp, #4]
	ldr	r3, [fp, #4]
	str	r3, [sp]
	ldr	r3, [fp, #-44]
	ldr	r2, [fp, #-40]
	ldr	r1, [fp, #-36]
	ldr	r0, [fp, #-32]
	bl	stbi__load_main
	str	r0, [fp, #-8]
	ldr	r3, [fp, #-8]
	cmp	r3, #0
	bne	.L82
	mov	r3, #0
	b	.L92
.L82:
	ldr	r3, [fp, #-24]
	cmp	r3, #8
	beq	.L84
	ldr	r3, [fp, #-36]
	ldr	r1, [r3]
	ldr	r3, [fp, #-40]
	ldr	r2, [r3]
	ldr	r3, [fp, #4]
	cmp	r3, #0
	bne	.L85
	ldr	r3, [fp, #-44]
	ldr	r3, [r3]
	b	.L86
.L85:
	ldr	r3, [fp, #4]
.L86:
	ldr	r0, [fp, #-8]
	bl	stbi__convert_16_to_8
	str	r0, [fp, #-8]
	mov	r3, #8
	str	r3, [fp, #-24]
.L84:
	mrc	p15, 0, r3, c13, c0, 3	@ load_tp_hard
	ldr	r2, .L93
	ldr	r3, [r3, r2]
	cmp	r3, #0
	beq	.L87
	mrc	p15, 0, r3, c13, c0, 3	@ load_tp_hard
	ldr	r2, .L93+4
	ldr	r3, [r3, r2]
	cmp	r3, #0
	movne	r3, #1
	moveq	r3, #0
	uxtb	r3, r3
	b	.L88
.L87:
	movw	r3, #:lower16:stbi__vertically_flip_on_load_global
	movt	r3, #:upper16:stbi__vertically_flip_on_load_global
	ldr	r3, [r3]
	cmp	r3, #0
	movne	r3, #1
	moveq	r3, #0
	uxtb	r3, r3
.L88:
	cmp	r3, #0
	beq	.L89
	ldr	r3, [fp, #4]
	cmp	r3, #0
	bne	.L90
	ldr	r3, [fp, #-44]
	ldr	r3, [r3]
	b	.L91
.L90:
	ldr	r3, [fp, #4]
.L91:
	str	r3, [fp, #-12]
	ldr	r3, [fp, #-36]
	ldr	r1, [r3]
	ldr	r3, [fp, #-40]
	ldr	r2, [r3]
	ldr	r3, [fp, #-12]
	ldr	r0, [fp, #-8]
	bl	stbi__vertical_flip
.L89:
	ldr	r3, [fp, #-8]
.L92:
	mov	r0, r3
	sub	sp, fp, #4
	@ sp needed
	pop	{fp, pc}
.L94:
	.align	2
.L93:
	.word	stbi__vertically_flip_on_load_set(tpoff)
	.word	stbi__vertically_flip_on_load_local(tpoff)
	.size	stbi__load_and_postprocess_8bit, .-stbi__load_and_postprocess_8bit
	.align	2
	.syntax unified
	.arm
	.fpu vfpv3-d16
	.type	stbi__load_and_postprocess_16bit, %function
stbi__load_and_postprocess_16bit:
	@ args = 4, pretend = 0, frame = 40
	@ frame_needed = 1, uses_anonymous_args = 0
	push	{fp, lr}
	add	fp, sp, #4
	sub	sp, sp, #56
	str	r0, [fp, #-32]
	str	r1, [fp, #-36]
	str	r2, [fp, #-40]
	str	r3, [fp, #-44]
	mov	r3, #16
	str	r3, [sp, #8]
	sub	r3, fp, #24
	str	r3, [sp, #4]
	ldr	r3, [fp, #4]
	str	r3, [sp]
	ldr	r3, [fp, #-44]
	ldr	r2, [fp, #-40]
	ldr	r1, [fp, #-36]
	ldr	r0, [fp, #-32]
	bl	stbi__load_main
	str	r0, [fp, #-8]
	ldr	r3, [fp, #-8]
	cmp	r3, #0
	bne	.L96
	mov	r3, #0
	b	.L106
.L96:
	ldr	r3, [fp, #-24]
	cmp	r3, #16
	beq	.L98
	ldr	r3, [fp, #-36]
	ldr	r1, [r3]
	ldr	r3, [fp, #-40]
	ldr	r2, [r3]
	ldr	r3, [fp, #4]
	cmp	r3, #0
	bne	.L99
	ldr	r3, [fp, #-44]
	ldr	r3, [r3]
	b	.L100
.L99:
	ldr	r3, [fp, #4]
.L100:
	ldr	r0, [fp, #-8]
	bl	stbi__convert_8_to_16
	str	r0, [fp, #-8]
	mov	r3, #16
	str	r3, [fp, #-24]
.L98:
	mrc	p15, 0, r3, c13, c0, 3	@ load_tp_hard
	ldr	r2, .L107
	ldr	r3, [r3, r2]
	cmp	r3, #0
	beq	.L101
	mrc	p15, 0, r3, c13, c0, 3	@ load_tp_hard
	ldr	r2, .L107+4
	ldr	r3, [r3, r2]
	cmp	r3, #0
	movne	r3, #1
	moveq	r3, #0
	uxtb	r3, r3
	b	.L102
.L101:
	movw	r3, #:lower16:stbi__vertically_flip_on_load_global
	movt	r3, #:upper16:stbi__vertically_flip_on_load_global
	ldr	r3, [r3]
	cmp	r3, #0
	movne	r3, #1
	moveq	r3, #0
	uxtb	r3, r3
.L102:
	cmp	r3, #0
	beq	.L103
	ldr	r3, [fp, #4]
	cmp	r3, #0
	bne	.L104
	ldr	r3, [fp, #-44]
	ldr	r3, [r3]
	b	.L105
.L104:
	ldr	r3, [fp, #4]
.L105:
	str	r3, [fp, #-12]
	ldr	r3, [fp, #-36]
	ldr	r1, [r3]
	ldr	r3, [fp, #-40]
	ldr	r2, [r3]
	ldr	r3, [fp, #-12]
	lsl	r3, r3, #1
	ldr	r0, [fp, #-8]
	bl	stbi__vertical_flip
.L103:
	ldr	r3, [fp, #-8]
.L106:
	mov	r0, r3
	sub	sp, fp, #4
	@ sp needed
	pop	{fp, pc}
.L108:
	.align	2
.L107:
	.word	stbi__vertically_flip_on_load_set(tpoff)
	.word	stbi__vertically_flip_on_load_local(tpoff)
	.size	stbi__load_and_postprocess_16bit, .-stbi__load_and_postprocess_16bit
	.align	2
	.syntax unified
	.arm
	.fpu vfpv3-d16
	.type	stbi__float_postprocess, %function
stbi__float_postprocess:
	@ args = 4, pretend = 0, frame = 24
	@ frame_needed = 1, uses_anonymous_args = 0
	push	{fp, lr}
	add	fp, sp, #4
	sub	sp, sp, #24
	str	r0, [fp, #-16]
	str	r1, [fp, #-20]
	str	r2, [fp, #-24]
	str	r3, [fp, #-28]
	mrc	p15, 0, r3, c13, c0, 3	@ load_tp_hard
	ldr	r2, .L116
	ldr	r3, [r3, r2]
	cmp	r3, #0
	beq	.L110
	mrc	p15, 0, r3, c13, c0, 3	@ load_tp_hard
	ldr	r2, .L116+4
	ldr	r3, [r3, r2]
	cmp	r3, #0
	movne	r3, #1
	moveq	r3, #0
	uxtb	r3, r3
	b	.L111
.L110:
	movw	r3, #:lower16:stbi__vertically_flip_on_load_global
	movt	r3, #:upper16:stbi__vertically_flip_on_load_global
	ldr	r3, [r3]
	cmp	r3, #0
	movne	r3, #1
	moveq	r3, #0
	uxtb	r3, r3
.L111:
	cmp	r3, #0
	beq	.L115
	ldr	r3, [fp, #-16]
	cmp	r3, #0
	beq	.L115
	ldr	r3, [fp, #4]
	cmp	r3, #0
	bne	.L113
	ldr	r3, [fp, #-28]
	ldr	r3, [r3]
	b	.L114
.L113:
	ldr	r3, [fp, #4]
.L114:
	str	r3, [fp, #-8]
	ldr	r3, [fp, #-20]
	ldr	r1, [r3]
	ldr	r3, [fp, #-24]
	ldr	r2, [r3]
	ldr	r3, [fp, #-8]
	lsl	r3, r3, #2
	ldr	r0, [fp, #-16]
	bl	stbi__vertical_flip
.L115:
	nop
	sub	sp, fp, #4
	@ sp needed
	pop	{fp, pc}
.L117:
	.align	2
.L116:
	.word	stbi__vertically_flip_on_load_set(tpoff)
	.word	stbi__vertically_flip_on_load_local(tpoff)
	.size	stbi__float_postprocess, .-stbi__float_postprocess
	.align	2
	.syntax unified
	.arm
	.fpu vfpv3-d16
	.type	stbi__fopen, %function
stbi__fopen:
	@ args = 0, pretend = 0, frame = 16
	@ frame_needed = 1, uses_anonymous_args = 0
	push	{fp, lr}
	add	fp, sp, #4
	sub	sp, sp, #16
	str	r0, [fp, #-16]
	str	r1, [fp, #-20]
	ldr	r1, [fp, #-20]
	ldr	r0, [fp, #-16]
	bl	fopen
	str	r0, [fp, #-8]
	ldr	r3, [fp, #-8]
	mov	r0, r3
	sub	sp, fp, #4
	@ sp needed
	pop	{fp, pc}
	.size	stbi__fopen, .-stbi__fopen
	.section	.rodata
	.align	2
.LC8:
	.ascii	"rb\000"
	.text
	.align	2
	.global	stbi_load
	.syntax unified
	.arm
	.fpu vfpv3-d16
	.type	stbi_load, %function
stbi_load:
	@ args = 4, pretend = 0, frame = 24
	@ frame_needed = 1, uses_anonymous_args = 0
	push	{fp, lr}
	add	fp, sp, #4
	sub	sp, sp, #32
	str	r0, [fp, #-16]
	str	r1, [fp, #-20]
	str	r2, [fp, #-24]
	str	r3, [fp, #-28]
	movw	r1, #:lower16:.LC8
	movt	r1, #:upper16:.LC8
	ldr	r0, [fp, #-16]
	bl	stbi__fopen
	str	r0, [fp, #-8]
	ldr	r3, [fp, #-8]
	cmp	r3, #0
	bne	.L121
	mov	r3, #0
	b	.L122
.L121:
	ldr	r3, [fp, #4]
	str	r3, [sp]
	ldr	r3, [fp, #-28]
	ldr	r2, [fp, #-24]
	ldr	r1, [fp, #-20]
	ldr	r0, [fp, #-8]
	bl	stbi_load_from_file
	str	r0, [fp, #-12]
	ldr	r0, [fp, #-8]
	bl	fclose
	ldr	r3, [fp, #-12]
.L122:
	mov	r0, r3
	sub	sp, fp, #4
	@ sp needed
	pop	{fp, pc}
	.size	stbi_load, .-stbi_load
	.align	2
	.global	stbi_load_from_file
	.syntax unified
	.arm
	.fpu vfpv3-d16
	.type	stbi_load_from_file, %function
stbi_load_from_file:
	@ args = 4, pretend = 0, frame = 208
	@ frame_needed = 1, uses_anonymous_args = 0
	push	{fp, lr}
	add	fp, sp, #4
	sub	sp, sp, #216
	str	r0, [fp, #-200]
	str	r1, [fp, #-204]
	str	r2, [fp, #-208]
	str	r3, [fp, #-212]
	sub	r3, fp, #192
	ldr	r1, [fp, #-200]
	mov	r0, r3
	bl	stbi__start_file
	sub	r0, fp, #192
	ldr	r3, [fp, #4]
	str	r3, [sp]
	ldr	r3, [fp, #-212]
	ldr	r2, [fp, #-208]
	ldr	r1, [fp, #-204]
	bl	stbi__load_and_postprocess_8bit
	str	r0, [fp, #-8]
	ldr	r3, [fp, #-8]
	cmp	r3, #0
	beq	.L124
	ldr	r2, [fp, #-24]
	ldr	r3, [fp, #-20]
	sub	r3, r2, r3
	mov	r2, #1
	mov	r1, r3
	ldr	r0, [fp, #-200]
	bl	fseek
.L124:
	ldr	r3, [fp, #-8]
	mov	r0, r3
	sub	sp, fp, #4
	@ sp needed
	pop	{fp, pc}
	.size	stbi_load_from_file, .-stbi_load_from_file
	.align	2
	.global	stbi_load_from_file_16
	.syntax unified
	.arm
	.fpu vfpv3-d16
	.type	stbi_load_from_file_16, %function
stbi_load_from_file_16:
	@ args = 4, pretend = 0, frame = 208
	@ frame_needed = 1, uses_anonymous_args = 0
	push	{fp, lr}
	add	fp, sp, #4
	sub	sp, sp, #216
	str	r0, [fp, #-200]
	str	r1, [fp, #-204]
	str	r2, [fp, #-208]
	str	r3, [fp, #-212]
	sub	r3, fp, #192
	ldr	r1, [fp, #-200]
	mov	r0, r3
	bl	stbi__start_file
	sub	r0, fp, #192
	ldr	r3, [fp, #4]
	str	r3, [sp]
	ldr	r3, [fp, #-212]
	ldr	r2, [fp, #-208]
	ldr	r1, [fp, #-204]
	bl	stbi__load_and_postprocess_16bit
	str	r0, [fp, #-8]
	ldr	r3, [fp, #-8]
	cmp	r3, #0
	beq	.L127
	ldr	r2, [fp, #-24]
	ldr	r3, [fp, #-20]
	sub	r3, r2, r3
	mov	r2, #1
	mov	r1, r3
	ldr	r0, [fp, #-200]
	bl	fseek
.L127:
	ldr	r3, [fp, #-8]
	mov	r0, r3
	sub	sp, fp, #4
	@ sp needed
	pop	{fp, pc}
	.size	stbi_load_from_file_16, .-stbi_load_from_file_16
	.align	2
	.global	stbi_load_16
	.syntax unified
	.arm
	.fpu vfpv3-d16
	.type	stbi_load_16, %function
stbi_load_16:
	@ args = 4, pretend = 0, frame = 24
	@ frame_needed = 1, uses_anonymous_args = 0
	push	{fp, lr}
	add	fp, sp, #4
	sub	sp, sp, #32
	str	r0, [fp, #-16]
	str	r1, [fp, #-20]
	str	r2, [fp, #-24]
	str	r3, [fp, #-28]
	movw	r1, #:lower16:.LC8
	movt	r1, #:upper16:.LC8
	ldr	r0, [fp, #-16]
	bl	stbi__fopen
	str	r0, [fp, #-8]
	ldr	r3, [fp, #-8]
	cmp	r3, #0
	bne	.L130
	mov	r3, #0
	b	.L131
.L130:
	ldr	r3, [fp, #4]
	str	r3, [sp]
	ldr	r3, [fp, #-28]
	ldr	r2, [fp, #-24]
	ldr	r1, [fp, #-20]
	ldr	r0, [fp, #-8]
	bl	stbi_load_from_file_16
	str	r0, [fp, #-12]
	ldr	r0, [fp, #-8]
	bl	fclose
	ldr	r3, [fp, #-12]
.L131:
	mov	r0, r3
	sub	sp, fp, #4
	@ sp needed
	pop	{fp, pc}
	.size	stbi_load_16, .-stbi_load_16
	.align	2
	.global	stbi_load_16_from_memory
	.syntax unified
	.arm
	.fpu vfpv3-d16
	.type	stbi_load_16_from_memory, %function
stbi_load_16_from_memory:
	@ args = 8, pretend = 0, frame = 200
	@ frame_needed = 1, uses_anonymous_args = 0
	push	{fp, lr}
	add	fp, sp, #4
	sub	sp, sp, #208
	str	r0, [fp, #-192]
	str	r1, [fp, #-196]
	str	r2, [fp, #-200]
	str	r3, [fp, #-204]
	sub	r3, fp, #188
	ldr	r2, [fp, #-196]
	ldr	r1, [fp, #-192]
	mov	r0, r3
	bl	stbi__start_mem
	sub	r0, fp, #188
	ldr	r3, [fp, #8]
	str	r3, [sp]
	ldr	r3, [fp, #4]
	ldr	r2, [fp, #-204]
	ldr	r1, [fp, #-200]
	bl	stbi__load_and_postprocess_16bit
	mov	r3, r0
	mov	r0, r3
	sub	sp, fp, #4
	@ sp needed
	pop	{fp, pc}
	.size	stbi_load_16_from_memory, .-stbi_load_16_from_memory
	.align	2
	.global	stbi_load_16_from_callbacks
	.syntax unified
	.arm
	.fpu vfpv3-d16
	.type	stbi_load_16_from_callbacks, %function
stbi_load_16_from_callbacks:
	@ args = 8, pretend = 0, frame = 200
	@ frame_needed = 1, uses_anonymous_args = 0
	push	{fp, lr}
	add	fp, sp, #4
	sub	sp, sp, #208
	str	r0, [fp, #-192]
	str	r1, [fp, #-196]
	str	r2, [fp, #-200]
	str	r3, [fp, #-204]
	sub	r3, fp, #188
	ldr	r2, [fp, #-196]
	ldr	r1, [fp, #-192]
	mov	r0, r3
	bl	stbi__start_callbacks
	sub	r0, fp, #188
	ldr	r3, [fp, #8]
	str	r3, [sp]
	ldr	r3, [fp, #4]
	ldr	r2, [fp, #-204]
	ldr	r1, [fp, #-200]
	bl	stbi__load_and_postprocess_16bit
	mov	r3, r0
	mov	r0, r3
	sub	sp, fp, #4
	@ sp needed
	pop	{fp, pc}
	.size	stbi_load_16_from_callbacks, .-stbi_load_16_from_callbacks
	.align	2
	.global	stbi_load_from_memory
	.syntax unified
	.arm
	.fpu vfpv3-d16
	.type	stbi_load_from_memory, %function
stbi_load_from_memory:
	@ args = 8, pretend = 0, frame = 200
	@ frame_needed = 1, uses_anonymous_args = 0
	push	{fp, lr}
	add	fp, sp, #4
	sub	sp, sp, #208
	str	r0, [fp, #-192]
	str	r1, [fp, #-196]
	str	r2, [fp, #-200]
	str	r3, [fp, #-204]
	sub	r3, fp, #188
	ldr	r2, [fp, #-196]
	ldr	r1, [fp, #-192]
	mov	r0, r3
	bl	stbi__start_mem
	sub	r0, fp, #188
	ldr	r3, [fp, #8]
	str	r3, [sp]
	ldr	r3, [fp, #4]
	ldr	r2, [fp, #-204]
	ldr	r1, [fp, #-200]
	bl	stbi__load_and_postprocess_8bit
	mov	r3, r0
	mov	r0, r3
	sub	sp, fp, #4
	@ sp needed
	pop	{fp, pc}
	.size	stbi_load_from_memory, .-stbi_load_from_memory
	.align	2
	.global	stbi_load_from_callbacks
	.syntax unified
	.arm
	.fpu vfpv3-d16
	.type	stbi_load_from_callbacks, %function
stbi_load_from_callbacks:
	@ args = 8, pretend = 0, frame = 200
	@ frame_needed = 1, uses_anonymous_args = 0
	push	{fp, lr}
	add	fp, sp, #4
	sub	sp, sp, #208
	str	r0, [fp, #-192]
	str	r1, [fp, #-196]
	str	r2, [fp, #-200]
	str	r3, [fp, #-204]
	sub	r3, fp, #188
	ldr	r2, [fp, #-196]
	ldr	r1, [fp, #-192]
	mov	r0, r3
	bl	stbi__start_callbacks
	sub	r0, fp, #188
	ldr	r3, [fp, #8]
	str	r3, [sp]
	ldr	r3, [fp, #4]
	ldr	r2, [fp, #-204]
	ldr	r1, [fp, #-200]
	bl	stbi__load_and_postprocess_8bit
	mov	r3, r0
	mov	r0, r3
	sub	sp, fp, #4
	@ sp needed
	pop	{fp, pc}
	.size	stbi_load_from_callbacks, .-stbi_load_from_callbacks
	.align	2
	.global	stbi_load_gif_from_memory
	.syntax unified
	.arm
	.fpu vfpv3-d16
	.type	stbi_load_gif_from_memory, %function
stbi_load_gif_from_memory:
	@ args = 16, pretend = 0, frame = 208
	@ frame_needed = 1, uses_anonymous_args = 0
	push	{fp, lr}
	add	fp, sp, #4
	sub	sp, sp, #224
	str	r0, [fp, #-200]
	str	r1, [fp, #-204]
	str	r2, [fp, #-208]
	str	r3, [fp, #-212]
	sub	r3, fp, #192
	ldr	r2, [fp, #-204]
	ldr	r1, [fp, #-200]
	mov	r0, r3
	bl	stbi__start_mem
	sub	r0, fp, #192
	ldr	r3, [fp, #16]
	str	r3, [sp, #8]
	ldr	r3, [fp, #12]
	str	r3, [sp, #4]
	ldr	r3, [fp, #8]
	str	r3, [sp]
	ldr	r3, [fp, #4]
	ldr	r2, [fp, #-212]
	ldr	r1, [fp, #-208]
	bl	stbi__load_gif_main
	str	r0, [fp, #-8]
	mrc	p15, 0, r3, c13, c0, 3	@ load_tp_hard
	ldr	r2, .L145
	ldr	r3, [r3, r2]
	cmp	r3, #0
	beq	.L141
	mrc	p15, 0, r3, c13, c0, 3	@ load_tp_hard
	ldr	r2, .L145+4
	ldr	r3, [r3, r2]
	cmp	r3, #0
	movne	r3, #1
	moveq	r3, #0
	uxtb	r3, r3
	b	.L142
.L141:
	movw	r3, #:lower16:stbi__vertically_flip_on_load_global
	movt	r3, #:upper16:stbi__vertically_flip_on_load_global
	ldr	r3, [r3]
	cmp	r3, #0
	movne	r3, #1
	moveq	r3, #0
	uxtb	r3, r3
.L142:
	cmp	r3, #0
	beq	.L143
	ldr	r3, [fp, #-212]
	ldr	r1, [r3]
	ldr	r3, [fp, #4]
	ldr	r2, [r3]
	ldr	r3, [fp, #8]
	ldr	r0, [r3]
	ldr	r3, [fp, #12]
	ldr	r3, [r3]
	str	r3, [sp]
	mov	r3, r0
	ldr	r0, [fp, #-8]
	bl	stbi__vertical_flip_slices
.L143:
	ldr	r3, [fp, #-8]
	mov	r0, r3
	sub	sp, fp, #4
	@ sp needed
	pop	{fp, pc}
.L146:
	.align	2
.L145:
	.word	stbi__vertically_flip_on_load_set(tpoff)
	.word	stbi__vertically_flip_on_load_local(tpoff)
	.size	stbi_load_gif_from_memory, .-stbi_load_gif_from_memory
	.align	2
	.syntax unified
	.arm
	.fpu vfpv3-d16
	.type	stbi__loadf_main, %function
stbi__loadf_main:
	@ args = 4, pretend = 0, frame = 40
	@ frame_needed = 1, uses_anonymous_args = 0
	push	{fp, lr}
	add	fp, sp, #4
	sub	sp, sp, #48
	str	r0, [fp, #-32]
	str	r1, [fp, #-36]
	str	r2, [fp, #-40]
	str	r3, [fp, #-44]
	ldr	r0, [fp, #-32]
	bl	stbi__hdr_test
	mov	r3, r0
	cmp	r3, #0
	beq	.L148
	sub	r3, fp, #24
	str	r3, [sp, #4]
	ldr	r3, [fp, #4]
	str	r3, [sp]
	ldr	r3, [fp, #-44]
	ldr	r2, [fp, #-40]
	ldr	r1, [fp, #-36]
	ldr	r0, [fp, #-32]
	bl	stbi__hdr_load
	str	r0, [fp, #-8]
	ldr	r3, [fp, #-8]
	cmp	r3, #0
	beq	.L149
	ldr	r3, [fp, #4]
	str	r3, [sp]
	ldr	r3, [fp, #-44]
	ldr	r2, [fp, #-40]
	ldr	r1, [fp, #-36]
	ldr	r0, [fp, #-8]
	bl	stbi__float_postprocess
.L149:
	ldr	r3, [fp, #-8]
	b	.L150
.L148:
	ldr	r3, [fp, #4]
	str	r3, [sp]
	ldr	r3, [fp, #-44]
	ldr	r2, [fp, #-40]
	ldr	r1, [fp, #-36]
	ldr	r0, [fp, #-32]
	bl	stbi__load_and_postprocess_8bit
	str	r0, [fp, #-12]
	ldr	r3, [fp, #-12]
	cmp	r3, #0
	beq	.L151
	ldr	r3, [fp, #-36]
	ldr	r1, [r3]
	ldr	r3, [fp, #-40]
	ldr	r2, [r3]
	ldr	r3, [fp, #4]
	cmp	r3, #0
	bne	.L152
	ldr	r3, [fp, #-44]
	ldr	r3, [r3]
	b	.L153
.L152:
	ldr	r3, [fp, #4]
.L153:
	ldr	r0, [fp, #-12]
	bl	stbi__ldr_to_hdr
	mov	r3, r0
	b	.L150
.L151:
	mov	r3, #0
.L150:
	mov	r0, r3
	sub	sp, fp, #4
	@ sp needed
	pop	{fp, pc}
	.size	stbi__loadf_main, .-stbi__loadf_main
	.align	2
	.global	stbi_loadf_from_memory
	.syntax unified
	.arm
	.fpu vfpv3-d16
	.type	stbi_loadf_from_memory, %function
stbi_loadf_from_memory:
	@ args = 8, pretend = 0, frame = 200
	@ frame_needed = 1, uses_anonymous_args = 0
	push	{fp, lr}
	add	fp, sp, #4
	sub	sp, sp, #208
	str	r0, [fp, #-192]
	str	r1, [fp, #-196]
	str	r2, [fp, #-200]
	str	r3, [fp, #-204]
	sub	r3, fp, #188
	ldr	r2, [fp, #-196]
	ldr	r1, [fp, #-192]
	mov	r0, r3
	bl	stbi__start_mem
	sub	r0, fp, #188
	ldr	r3, [fp, #8]
	str	r3, [sp]
	ldr	r3, [fp, #4]
	ldr	r2, [fp, #-204]
	ldr	r1, [fp, #-200]
	bl	stbi__loadf_main
	mov	r3, r0
	mov	r0, r3
	sub	sp, fp, #4
	@ sp needed
	pop	{fp, pc}
	.size	stbi_loadf_from_memory, .-stbi_loadf_from_memory
	.align	2
	.global	stbi_loadf_from_callbacks
	.syntax unified
	.arm
	.fpu vfpv3-d16
	.type	stbi_loadf_from_callbacks, %function
stbi_loadf_from_callbacks:
	@ args = 8, pretend = 0, frame = 200
	@ frame_needed = 1, uses_anonymous_args = 0
	push	{fp, lr}
	add	fp, sp, #4
	sub	sp, sp, #208
	str	r0, [fp, #-192]
	str	r1, [fp, #-196]
	str	r2, [fp, #-200]
	str	r3, [fp, #-204]
	sub	r3, fp, #188
	ldr	r2, [fp, #-196]
	ldr	r1, [fp, #-192]
	mov	r0, r3
	bl	stbi__start_callbacks
	sub	r0, fp, #188
	ldr	r3, [fp, #8]
	str	r3, [sp]
	ldr	r3, [fp, #4]
	ldr	r2, [fp, #-204]
	ldr	r1, [fp, #-200]
	bl	stbi__loadf_main
	mov	r3, r0
	mov	r0, r3
	sub	sp, fp, #4
	@ sp needed
	pop	{fp, pc}
	.size	stbi_loadf_from_callbacks, .-stbi_loadf_from_callbacks
	.align	2
	.global	stbi_loadf
	.syntax unified
	.arm
	.fpu vfpv3-d16
	.type	stbi_loadf, %function
stbi_loadf:
	@ args = 4, pretend = 0, frame = 24
	@ frame_needed = 1, uses_anonymous_args = 0
	push	{fp, lr}
	add	fp, sp, #4
	sub	sp, sp, #32
	str	r0, [fp, #-16]
	str	r1, [fp, #-20]
	str	r2, [fp, #-24]
	str	r3, [fp, #-28]
	movw	r1, #:lower16:.LC8
	movt	r1, #:upper16:.LC8
	ldr	r0, [fp, #-16]
	bl	stbi__fopen
	str	r0, [fp, #-8]
	ldr	r3, [fp, #-8]
	cmp	r3, #0
	bne	.L159
	mov	r3, #0
	b	.L160
.L159:
	ldr	r3, [fp, #4]
	str	r3, [sp]
	ldr	r3, [fp, #-28]
	ldr	r2, [fp, #-24]
	ldr	r1, [fp, #-20]
	ldr	r0, [fp, #-8]
	bl	stbi_loadf_from_file
	str	r0, [fp, #-12]
	ldr	r0, [fp, #-8]
	bl	fclose
	ldr	r3, [fp, #-12]
.L160:
	mov	r0, r3
	sub	sp, fp, #4
	@ sp needed
	pop	{fp, pc}
	.size	stbi_loadf, .-stbi_loadf
	.align	2
	.global	stbi_loadf_from_file
	.syntax unified
	.arm
	.fpu vfpv3-d16
	.type	stbi_loadf_from_file, %function
stbi_loadf_from_file:
	@ args = 4, pretend = 0, frame = 200
	@ frame_needed = 1, uses_anonymous_args = 0
	push	{fp, lr}
	add	fp, sp, #4
	sub	sp, sp, #208
	str	r0, [fp, #-192]
	str	r1, [fp, #-196]
	str	r2, [fp, #-200]
	str	r3, [fp, #-204]
	sub	r3, fp, #188
	ldr	r1, [fp, #-192]
	mov	r0, r3
	bl	stbi__start_file
	sub	r0, fp, #188
	ldr	r3, [fp, #4]
	str	r3, [sp]
	ldr	r3, [fp, #-204]
	ldr	r2, [fp, #-200]
	ldr	r1, [fp, #-196]
	bl	stbi__loadf_main
	mov	r3, r0
	mov	r0, r3
	sub	sp, fp, #4
	@ sp needed
	pop	{fp, pc}
	.size	stbi_loadf_from_file, .-stbi_loadf_from_file
	.align	2
	.global	stbi_is_hdr_from_memory
	.syntax unified
	.arm
	.fpu vfpv3-d16
	.type	stbi_is_hdr_from_memory, %function
stbi_is_hdr_from_memory:
	@ args = 0, pretend = 0, frame = 192
	@ frame_needed = 1, uses_anonymous_args = 0
	push	{fp, lr}
	add	fp, sp, #4
	sub	sp, sp, #192
	str	r0, [fp, #-192]
	str	r1, [fp, #-196]
	sub	r3, fp, #188
	ldr	r2, [fp, #-196]
	ldr	r1, [fp, #-192]
	mov	r0, r3
	bl	stbi__start_mem
	sub	r3, fp, #188
	mov	r0, r3
	bl	stbi__hdr_test
	mov	r3, r0
	mov	r0, r3
	sub	sp, fp, #4
	@ sp needed
	pop	{fp, pc}
	.size	stbi_is_hdr_from_memory, .-stbi_is_hdr_from_memory
	.align	2
	.global	stbi_is_hdr
	.syntax unified
	.arm
	.fpu vfpv3-d16
	.type	stbi_is_hdr, %function
stbi_is_hdr:
	@ args = 0, pretend = 0, frame = 16
	@ frame_needed = 1, uses_anonymous_args = 0
	push	{fp, lr}
	add	fp, sp, #4
	sub	sp, sp, #16
	str	r0, [fp, #-16]
	movw	r1, #:lower16:.LC8
	movt	r1, #:upper16:.LC8
	ldr	r0, [fp, #-16]
	bl	stbi__fopen
	str	r0, [fp, #-12]
	mov	r3, #0
	str	r3, [fp, #-8]
	ldr	r3, [fp, #-12]
	cmp	r3, #0
	beq	.L166
	ldr	r0, [fp, #-12]
	bl	stbi_is_hdr_from_file
	str	r0, [fp, #-8]
	ldr	r0, [fp, #-12]
	bl	fclose
.L166:
	ldr	r3, [fp, #-8]
	mov	r0, r3
	sub	sp, fp, #4
	@ sp needed
	pop	{fp, pc}
	.size	stbi_is_hdr, .-stbi_is_hdr
	.align	2
	.global	stbi_is_hdr_from_file
	.syntax unified
	.arm
	.fpu vfpv3-d16
	.type	stbi_is_hdr_from_file, %function
stbi_is_hdr_from_file:
	@ args = 0, pretend = 0, frame = 200
	@ frame_needed = 1, uses_anonymous_args = 0
	push	{fp, lr}
	add	fp, sp, #4
	sub	sp, sp, #200
	str	r0, [fp, #-200]
	ldr	r0, [fp, #-200]
	bl	ftell
	str	r0, [fp, #-8]
	sub	r3, fp, #196
	ldr	r1, [fp, #-200]
	mov	r0, r3
	bl	stbi__start_file
	sub	r3, fp, #196
	mov	r0, r3
	bl	stbi__hdr_test
	str	r0, [fp, #-12]
	mov	r2, #0
	ldr	r1, [fp, #-8]
	ldr	r0, [fp, #-200]
	bl	fseek
	ldr	r3, [fp, #-12]
	mov	r0, r3
	sub	sp, fp, #4
	@ sp needed
	pop	{fp, pc}
	.size	stbi_is_hdr_from_file, .-stbi_is_hdr_from_file
	.align	2
	.global	stbi_is_hdr_from_callbacks
	.syntax unified
	.arm
	.fpu vfpv3-d16
	.type	stbi_is_hdr_from_callbacks, %function
stbi_is_hdr_from_callbacks:
	@ args = 0, pretend = 0, frame = 192
	@ frame_needed = 1, uses_anonymous_args = 0
	push	{fp, lr}
	add	fp, sp, #4
	sub	sp, sp, #192
	str	r0, [fp, #-192]
	str	r1, [fp, #-196]
	sub	r3, fp, #188
	ldr	r2, [fp, #-196]
	ldr	r1, [fp, #-192]
	mov	r0, r3
	bl	stbi__start_callbacks
	sub	r3, fp, #188
	mov	r0, r3
	bl	stbi__hdr_test
	mov	r3, r0
	mov	r0, r3
	sub	sp, fp, #4
	@ sp needed
	pop	{fp, pc}
	.size	stbi_is_hdr_from_callbacks, .-stbi_is_hdr_from_callbacks
	.data
	.align	2
	.type	stbi__l2h_gamma, %object
	.size	stbi__l2h_gamma, 4
stbi__l2h_gamma:
	.word	1074580685
	.align	2
	.type	stbi__l2h_scale, %object
	.size	stbi__l2h_scale, 4
stbi__l2h_scale:
	.word	1065353216
	.text
	.align	2
	.global	stbi_ldr_to_hdr_gamma
	.syntax unified
	.arm
	.fpu vfpv3-d16
	.type	stbi_ldr_to_hdr_gamma, %function
stbi_ldr_to_hdr_gamma:
	@ args = 0, pretend = 0, frame = 8
	@ frame_needed = 1, uses_anonymous_args = 0
	@ link register save eliminated.
	str	fp, [sp, #-4]!
	add	fp, sp, #0
	sub	sp, sp, #12
	vstr.32	s0, [fp, #-8]
	movw	r3, #:lower16:stbi__l2h_gamma
	movt	r3, #:upper16:stbi__l2h_gamma
	ldr	r2, [fp, #-8]	@ float
	str	r2, [r3]	@ float
	nop
	add	sp, fp, #0
	@ sp needed
	ldr	fp, [sp], #4
	bx	lr
	.size	stbi_ldr_to_hdr_gamma, .-stbi_ldr_to_hdr_gamma
	.align	2
	.global	stbi_ldr_to_hdr_scale
	.syntax unified
	.arm
	.fpu vfpv3-d16
	.type	stbi_ldr_to_hdr_scale, %function
stbi_ldr_to_hdr_scale:
	@ args = 0, pretend = 0, frame = 8
	@ frame_needed = 1, uses_anonymous_args = 0
	@ link register save eliminated.
	str	fp, [sp, #-4]!
	add	fp, sp, #0
	sub	sp, sp, #12
	vstr.32	s0, [fp, #-8]
	movw	r3, #:lower16:stbi__l2h_scale
	movt	r3, #:upper16:stbi__l2h_scale
	ldr	r2, [fp, #-8]	@ float
	str	r2, [r3]	@ float
	nop
	add	sp, fp, #0
	@ sp needed
	ldr	fp, [sp], #4
	bx	lr
	.size	stbi_ldr_to_hdr_scale, .-stbi_ldr_to_hdr_scale
	.data
	.align	2
	.type	stbi__h2l_gamma_i, %object
	.size	stbi__h2l_gamma_i, 4
stbi__h2l_gamma_i:
	.word	1055439406
	.align	2
	.type	stbi__h2l_scale_i, %object
	.size	stbi__h2l_scale_i, 4
stbi__h2l_scale_i:
	.word	1065353216
	.text
	.align	2
	.global	stbi_hdr_to_ldr_gamma
	.syntax unified
	.arm
	.fpu vfpv3-d16
	.type	stbi_hdr_to_ldr_gamma, %function
stbi_hdr_to_ldr_gamma:
	@ args = 0, pretend = 0, frame = 8
	@ frame_needed = 1, uses_anonymous_args = 0
	@ link register save eliminated.
	str	fp, [sp, #-4]!
	add	fp, sp, #0
	sub	sp, sp, #12
	vstr.32	s0, [fp, #-8]
	vmov.f32	s13, #1.0e+0
	vldr.32	s14, [fp, #-8]
	vdiv.f32	s15, s13, s14
	movw	r3, #:lower16:stbi__h2l_gamma_i
	movt	r3, #:upper16:stbi__h2l_gamma_i
	vstr.32	s15, [r3]
	nop
	add	sp, fp, #0
	@ sp needed
	ldr	fp, [sp], #4
	bx	lr
	.size	stbi_hdr_to_ldr_gamma, .-stbi_hdr_to_ldr_gamma
	.align	2
	.global	stbi_hdr_to_ldr_scale
	.syntax unified
	.arm
	.fpu vfpv3-d16
	.type	stbi_hdr_to_ldr_scale, %function
stbi_hdr_to_ldr_scale:
	@ args = 0, pretend = 0, frame = 8
	@ frame_needed = 1, uses_anonymous_args = 0
	@ link register save eliminated.
	str	fp, [sp, #-4]!
	add	fp, sp, #0
	sub	sp, sp, #12
	vstr.32	s0, [fp, #-8]
	vmov.f32	s13, #1.0e+0
	vldr.32	s14, [fp, #-8]
	vdiv.f32	s15, s13, s14
	movw	r3, #:lower16:stbi__h2l_scale_i
	movt	r3, #:upper16:stbi__h2l_scale_i
	vstr.32	s15, [r3]
	nop
	add	sp, fp, #0
	@ sp needed
	ldr	fp, [sp], #4
	bx	lr
	.size	stbi_hdr_to_ldr_scale, .-stbi_hdr_to_ldr_scale
	.align	2
	.syntax unified
	.arm
	.fpu vfpv3-d16
	.type	stbi__refill_buffer, %function
stbi__refill_buffer:
	@ args = 0, pretend = 0, frame = 16
	@ frame_needed = 1, uses_anonymous_args = 0
	push	{fp, lr}
	add	fp, sp, #4
	sub	sp, sp, #16
	str	r0, [fp, #-16]
	ldr	r3, [fp, #-16]
	ldr	r3, [r3, #16]
	ldr	r2, [fp, #-16]
	ldr	r0, [r2, #28]
	ldr	r2, [fp, #-16]
	add	r1, r2, #40
	ldr	r2, [fp, #-16]
	ldr	r2, [r2, #36]
	blx	r3
	str	r0, [fp, #-8]
	ldr	r3, [fp, #-8]
	cmp	r3, #0
	bne	.L177
	ldr	r3, [fp, #-16]
	mov	r2, #0
	str	r2, [r3, #32]
	ldr	r3, [fp, #-16]
	add	r2, r3, #40
	ldr	r3, [fp, #-16]
	str	r2, [r3, #168]
	ldr	r3, [fp, #-16]
	add	r3, r3, #40
	add	r2, r3, #1
	ldr	r3, [fp, #-16]
	str	r2, [r3, #172]
	ldr	r3, [fp, #-16]
	ldr	r3, [r3, #168]
	mov	r2, #0
	strb	r2, [r3]
	b	.L179
.L177:
	ldr	r3, [fp, #-16]
	add	r2, r3, #40
	ldr	r3, [fp, #-16]
	str	r2, [r3, #168]
	ldr	r3, [fp, #-16]
	add	r2, r3, #40
	ldr	r3, [fp, #-8]
	add	r2, r2, r3
	ldr	r3, [fp, #-16]
	str	r2, [r3, #172]
.L179:
	nop
	sub	sp, fp, #4
	@ sp needed
	pop	{fp, pc}
	.size	stbi__refill_buffer, .-stbi__refill_buffer
	.align	2
	.syntax unified
	.arm
	.fpu vfpv3-d16
	.type	stbi__get8, %function
stbi__get8:
	@ args = 0, pretend = 0, frame = 8
	@ frame_needed = 1, uses_anonymous_args = 0
	push	{fp, lr}
	add	fp, sp, #4
	sub	sp, sp, #8
	str	r0, [fp, #-8]
	ldr	r3, [fp, #-8]
	ldr	r2, [r3, #168]
	ldr	r3, [fp, #-8]
	ldr	r3, [r3, #172]
	cmp	r2, r3
	bcs	.L181
	ldr	r3, [fp, #-8]
	ldr	r3, [r3, #168]
	add	r1, r3, #1
	ldr	r2, [fp, #-8]
	str	r1, [r2, #168]
	ldrb	r3, [r3]	@ zero_extendqisi2
	b	.L182
.L181:
	ldr	r3, [fp, #-8]
	ldr	r3, [r3, #32]
	cmp	r3, #0
	beq	.L183
	ldr	r0, [fp, #-8]
	bl	stbi__refill_buffer
	ldr	r3, [fp, #-8]
	ldr	r3, [r3, #168]
	add	r1, r3, #1
	ldr	r2, [fp, #-8]
	str	r1, [r2, #168]
	ldrb	r3, [r3]	@ zero_extendqisi2
	b	.L182
.L183:
	mov	r3, #0
.L182:
	mov	r0, r3
	sub	sp, fp, #4
	@ sp needed
	pop	{fp, pc}
	.size	stbi__get8, .-stbi__get8
	.align	2
	.syntax unified
	.arm
	.fpu vfpv3-d16
	.type	stbi__at_eof, %function
stbi__at_eof:
	@ args = 0, pretend = 0, frame = 8
	@ frame_needed = 1, uses_anonymous_args = 0
	push	{fp, lr}
	add	fp, sp, #4
	sub	sp, sp, #8
	str	r0, [fp, #-8]
	ldr	r3, [fp, #-8]
	ldr	r3, [r3, #16]
	cmp	r3, #0
	beq	.L185
	ldr	r3, [fp, #-8]
	ldr	r3, [r3, #24]
	ldr	r2, [fp, #-8]
	ldr	r2, [r2, #28]
	mov	r0, r2
	blx	r3
	mov	r3, r0
	cmp	r3, #0
	bne	.L186
	mov	r3, #0
	b	.L187
.L186:
	ldr	r3, [fp, #-8]
	ldr	r3, [r3, #32]
	cmp	r3, #0
	bne	.L185
	mov	r3, #1
	b	.L187
.L185:
	ldr	r3, [fp, #-8]
	ldr	r2, [r3, #168]
	ldr	r3, [fp, #-8]
	ldr	r3, [r3, #172]
	cmp	r2, r3
	movcs	r3, #1
	movcc	r3, #0
	uxtb	r3, r3
.L187:
	mov	r0, r3
	sub	sp, fp, #4
	@ sp needed
	pop	{fp, pc}
	.size	stbi__at_eof, .-stbi__at_eof
	.align	2
	.syntax unified
	.arm
	.fpu vfpv3-d16
	.type	stbi__skip, %function
stbi__skip:
	@ args = 0, pretend = 0, frame = 16
	@ frame_needed = 1, uses_anonymous_args = 0
	push	{fp, lr}
	add	fp, sp, #4
	sub	sp, sp, #16
	str	r0, [fp, #-16]
	str	r1, [fp, #-20]
	ldr	r3, [fp, #-20]
	cmp	r3, #0
	bge	.L189
	ldr	r3, [fp, #-16]
	ldr	r2, [r3, #172]
	ldr	r3, [fp, #-16]
	str	r2, [r3, #168]
	b	.L188
.L189:
	ldr	r3, [fp, #-16]
	ldr	r3, [r3, #16]
	cmp	r3, #0
	beq	.L191
	ldr	r3, [fp, #-16]
	ldr	r2, [r3, #172]
	ldr	r3, [fp, #-16]
	ldr	r3, [r3, #168]
	sub	r3, r2, r3
	str	r3, [fp, #-8]
	ldr	r2, [fp, #-8]
	ldr	r3, [fp, #-20]
	cmp	r2, r3
	bge	.L191
	ldr	r3, [fp, #-16]
	ldr	r2, [r3, #172]
	ldr	r3, [fp, #-16]
	str	r2, [r3, #168]
	ldr	r3, [fp, #-16]
	ldr	r3, [r3, #20]
	ldr	r2, [fp, #-16]
	ldr	r0, [r2, #28]
	ldr	r1, [fp, #-20]
	ldr	r2, [fp, #-8]
	sub	r2, r1, r2
	mov	r1, r2
	blx	r3
	b	.L188
.L191:
	ldr	r3, [fp, #-16]
	ldr	r2, [r3, #168]
	ldr	r3, [fp, #-20]
	add	r2, r2, r3
	ldr	r3, [fp, #-16]
	str	r2, [r3, #168]
.L188:
	sub	sp, fp, #4
	@ sp needed
	pop	{fp, pc}
	.size	stbi__skip, .-stbi__skip
	.align	2
	.syntax unified
	.arm
	.fpu vfpv3-d16
	.type	stbi__getn, %function
stbi__getn:
	@ args = 0, pretend = 0, frame = 32
	@ frame_needed = 1, uses_anonymous_args = 0
	push	{fp, lr}
	add	fp, sp, #4
	sub	sp, sp, #32
	str	r0, [fp, #-24]
	str	r1, [fp, #-28]
	str	r2, [fp, #-32]
	ldr	r3, [fp, #-24]
	ldr	r3, [r3, #16]
	cmp	r3, #0
	beq	.L193
	ldr	r3, [fp, #-24]
	ldr	r2, [r3, #172]
	ldr	r3, [fp, #-24]
	ldr	r3, [r3, #168]
	sub	r3, r2, r3
	str	r3, [fp, #-8]
	ldr	r2, [fp, #-8]
	ldr	r3, [fp, #-32]
	cmp	r2, r3
	bge	.L193
	ldr	r3, [fp, #-24]
	ldr	r3, [r3, #168]
	ldr	r2, [fp, #-8]
	mov	r1, r3
	ldr	r0, [fp, #-28]
	bl	memcpy
	ldr	r3, [fp, #-24]
	ldr	r3, [r3, #16]
	ldr	r2, [fp, #-24]
	ldr	r0, [r2, #28]
	ldr	r2, [fp, #-8]
	ldr	r1, [fp, #-28]
	add	ip, r1, r2
	ldr	r1, [fp, #-32]
	ldr	r2, [fp, #-8]
	sub	r2, r1, r2
	mov	r1, ip
	blx	r3
	str	r0, [fp, #-12]
	ldr	r2, [fp, #-32]
	ldr	r3, [fp, #-8]
	sub	r3, r2, r3
	ldr	r2, [fp, #-12]
	cmp	r2, r3
	moveq	r3, #1
	movne	r3, #0
	uxtb	r3, r3
	str	r3, [fp, #-16]
	ldr	r3, [fp, #-24]
	ldr	r2, [r3, #172]
	ldr	r3, [fp, #-24]
	str	r2, [r3, #168]
	ldr	r3, [fp, #-16]
	b	.L194
.L193:
	ldr	r3, [fp, #-24]
	ldr	r2, [r3, #168]
	ldr	r3, [fp, #-32]
	add	r2, r2, r3
	ldr	r3, [fp, #-24]
	ldr	r3, [r3, #172]
	cmp	r2, r3
	bhi	.L195
	ldr	r3, [fp, #-24]
	ldr	r3, [r3, #168]
	ldr	r2, [fp, #-32]
	mov	r1, r3
	ldr	r0, [fp, #-28]
	bl	memcpy
	ldr	r3, [fp, #-24]
	ldr	r2, [r3, #168]
	ldr	r3, [fp, #-32]
	add	r2, r2, r3
	ldr	r3, [fp, #-24]
	str	r2, [r3, #168]
	mov	r3, #1
	b	.L194
.L195:
	mov	r3, #0
.L194:
	mov	r0, r3
	sub	sp, fp, #4
	@ sp needed
	pop	{fp, pc}
	.size	stbi__getn, .-stbi__getn
	.align	2
	.syntax unified
	.arm
	.fpu vfpv3-d16
	.type	stbi__get16be, %function
stbi__get16be:
	@ args = 0, pretend = 0, frame = 16
	@ frame_needed = 1, uses_anonymous_args = 0
	push	{r4, fp, lr}
	add	fp, sp, #8
	sub	sp, sp, #20
	str	r0, [fp, #-24]
	ldr	r0, [fp, #-24]
	bl	stbi__get8
	mov	r3, r0
	str	r3, [fp, #-16]
	ldr	r3, [fp, #-16]
	lsl	r4, r3, #8
	ldr	r0, [fp, #-24]
	bl	stbi__get8
	mov	r3, r0
	add	r3, r4, r3
	mov	r0, r3
	sub	sp, fp, #8
	@ sp needed
	pop	{r4, fp, pc}
	.size	stbi__get16be, .-stbi__get16be
	.align	2
	.syntax unified
	.arm
	.fpu vfpv3-d16
	.type	stbi__get32be, %function
stbi__get32be:
	@ args = 0, pretend = 0, frame = 16
	@ frame_needed = 1, uses_anonymous_args = 0
	push	{r4, fp, lr}
	add	fp, sp, #8
	sub	sp, sp, #20
	str	r0, [fp, #-24]
	ldr	r0, [fp, #-24]
	bl	stbi__get16be
	mov	r3, r0
	str	r3, [fp, #-16]
	ldr	r3, [fp, #-16]
	lsl	r4, r3, #16
	ldr	r0, [fp, #-24]
	bl	stbi__get16be
	mov	r3, r0
	add	r3, r4, r3
	mov	r0, r3
	sub	sp, fp, #8
	@ sp needed
	pop	{r4, fp, pc}
	.size	stbi__get32be, .-stbi__get32be
	.align	2
	.syntax unified
	.arm
	.fpu vfpv3-d16
	.type	stbi__get16le, %function
stbi__get16le:
	@ args = 0, pretend = 0, frame = 16
	@ frame_needed = 1, uses_anonymous_args = 0
	push	{fp, lr}
	add	fp, sp, #4
	sub	sp, sp, #16
	str	r0, [fp, #-16]
	ldr	r0, [fp, #-16]
	bl	stbi__get8
	mov	r3, r0
	str	r3, [fp, #-8]
	ldr	r0, [fp, #-16]
	bl	stbi__get8
	mov	r3, r0
	lsl	r2, r3, #8
	ldr	r3, [fp, #-8]
	add	r3, r2, r3
	mov	r0, r3
	sub	sp, fp, #4
	@ sp needed
	pop	{fp, pc}
	.size	stbi__get16le, .-stbi__get16le
	.align	2
	.syntax unified
	.arm
	.fpu vfpv3-d16
	.type	stbi__get32le, %function
stbi__get32le:
	@ args = 0, pretend = 0, frame = 16
	@ frame_needed = 1, uses_anonymous_args = 0
	push	{fp, lr}
	add	fp, sp, #4
	sub	sp, sp, #16
	str	r0, [fp, #-16]
	ldr	r0, [fp, #-16]
	bl	stbi__get16le
	mov	r3, r0
	str	r3, [fp, #-8]
	ldr	r0, [fp, #-16]
	bl	stbi__get16le
	mov	r3, r0
	lsl	r3, r3, #16
	mov	r2, r3
	ldr	r3, [fp, #-8]
	add	r3, r2, r3
	mov	r0, r3
	sub	sp, fp, #4
	@ sp needed
	pop	{fp, pc}
	.size	stbi__get32le, .-stbi__get32le
	.align	2
	.syntax unified
	.arm
	.fpu vfpv3-d16
	.type	stbi__compute_y, %function
stbi__compute_y:
	@ args = 0, pretend = 0, frame = 16
	@ frame_needed = 1, uses_anonymous_args = 0
	@ link register save eliminated.
	str	fp, [sp, #-4]!
	add	fp, sp, #0
	sub	sp, sp, #20
	str	r0, [fp, #-8]
	str	r1, [fp, #-12]
	str	r2, [fp, #-16]
	ldr	r2, [fp, #-8]
	mov	r3, r2
	lsl	r3, r3, #2
	add	r3, r3, r2
	lsl	r3, r3, #1
	add	r3, r3, r2
	lsl	r2, r3, #3
	sub	r1, r2, r3
	ldr	r2, [fp, #-12]
	mov	r3, r2
	lsl	r3, r3, #2
	add	r3, r3, r2
	lsl	r2, r3, #4
	sub	r2, r2, r3
	lsl	r3, r2, #1
	mov	r2, r3
	mov	r3, r2
	add	r1, r1, r3
	ldr	r2, [fp, #-16]
	mov	r3, r2
	lsl	r3, r3, #3
	sub	r3, r3, r2
	lsl	r3, r3, #2
	add	r3, r3, r2
	add	r3, r1, r3
	asr	r3, r3, #8
	uxtb	r3, r3
	mov	r0, r3
	add	sp, fp, #0
	@ sp needed
	ldr	fp, [sp], #4
	bx	lr
	.size	stbi__compute_y, .-stbi__compute_y
	.align	2
	.syntax unified
	.arm
	.fpu vfpv3-d16
	.type	stbi__convert_format, %function
stbi__convert_format:
	@ args = 4, pretend = 0, frame = 40
	@ frame_needed = 1, uses_anonymous_args = 0
	push	{fp, lr}
	add	fp, sp, #4
	sub	sp, sp, #40
	str	r0, [fp, #-32]
	str	r1, [fp, #-36]
	str	r2, [fp, #-40]
	str	r3, [fp, #-44]
	ldr	r2, [fp, #-40]
	ldr	r3, [fp, #-36]
	cmp	r2, r3
	bne	.L207
	ldr	r3, [fp, #-32]
	b	.L208
.L207:
	ldr	r1, [fp, #-44]
	ldr	r2, [fp, #4]
	mov	r3, #0
	ldr	r0, [fp, #-40]
	bl	stbi__malloc_mad3
	str	r0, [fp, #-24]
	ldr	r3, [fp, #-24]
	cmp	r3, #0
	bne	.L209
	ldr	r0, [fp, #-32]
	bl	free
	mov	r3, #0
	b	.L208
.L209:
	mov	r3, #0
	str	r3, [fp, #-12]
	b	.L210
.L249:
	ldr	r3, [fp, #-12]
	ldr	r2, [fp, #-44]
	mul	r3, r2, r3
	ldr	r2, [fp, #-36]
	mul	r3, r2, r3
	ldr	r2, [fp, #-32]
	add	r3, r2, r3
	str	r3, [fp, #-16]
	ldr	r3, [fp, #-12]
	ldr	r2, [fp, #-44]
	mul	r3, r2, r3
	ldr	r2, [fp, #-40]
	mul	r3, r2, r3
	ldr	r2, [fp, #-24]
	add	r3, r2, r3
	str	r3, [fp, #-20]
	ldr	r3, [fp, #-36]
	lsl	r2, r3, #3
	ldr	r3, [fp, #-40]
	add	r3, r2, r3
	sub	r3, r3, #10
	cmp	r3, #25
	ldrls	pc, [pc, r3, asl #2]
	b	.L211
.L213:
	.word	.L224
	.word	.L223
	.word	.L222
	.word	.L211
	.word	.L211
	.word	.L211
	.word	.L211
	.word	.L221
	.word	.L211
	.word	.L220
	.word	.L219
	.word	.L211
	.word	.L211
	.word	.L211
	.word	.L211
	.word	.L218
	.word	.L217
	.word	.L211
	.word	.L216
	.word	.L211
	.word	.L211
	.word	.L211
	.word	.L211
	.word	.L215
	.word	.L214
	.word	.L212
.L224:
	ldr	r3, [fp, #-44]
	sub	r3, r3, #1
	str	r3, [fp, #-8]
	b	.L225
.L226:
	ldr	r3, [fp, #-16]
	ldrb	r2, [r3]	@ zero_extendqisi2
	ldr	r3, [fp, #-20]
	strb	r2, [r3]
	ldr	r3, [fp, #-20]
	add	r3, r3, #1
	mvn	r2, #0
	strb	r2, [r3]
	ldr	r3, [fp, #-8]
	sub	r3, r3, #1
	str	r3, [fp, #-8]
	ldr	r3, [fp, #-16]
	add	r3, r3, #1
	str	r3, [fp, #-16]
	ldr	r3, [fp, #-20]
	add	r3, r3, #2
	str	r3, [fp, #-20]
.L225:
	ldr	r3, [fp, #-8]
	cmp	r3, #0
	bge	.L226
	b	.L211
.L223:
	ldr	r3, [fp, #-44]
	sub	r3, r3, #1
	str	r3, [fp, #-8]
	b	.L227
.L228:
	ldr	r3, [fp, #-20]
	add	r2, r3, #2
	ldr	r3, [fp, #-16]
	ldrb	r3, [r3]	@ zero_extendqisi2
	strb	r3, [r2]
	ldr	r3, [fp, #-20]
	add	r3, r3, #1
	ldrb	r2, [r2]	@ zero_extendqisi2
	strb	r2, [r3]
	ldrb	r2, [r3]	@ zero_extendqisi2
	ldr	r3, [fp, #-20]
	strb	r2, [r3]
	ldr	r3, [fp, #-8]
	sub	r3, r3, #1
	str	r3, [fp, #-8]
	ldr	r3, [fp, #-16]
	add	r3, r3, #1
	str	r3, [fp, #-16]
	ldr	r3, [fp, #-20]
	add	r3, r3, #3
	str	r3, [fp, #-20]
.L227:
	ldr	r3, [fp, #-8]
	cmp	r3, #0
	bge	.L228
	b	.L211
.L222:
	ldr	r3, [fp, #-44]
	sub	r3, r3, #1
	str	r3, [fp, #-8]
	b	.L229
.L230:
	ldr	r3, [fp, #-20]
	add	r2, r3, #2
	ldr	r3, [fp, #-16]
	ldrb	r3, [r3]	@ zero_extendqisi2
	strb	r3, [r2]
	ldr	r3, [fp, #-20]
	add	r3, r3, #1
	ldrb	r2, [r2]	@ zero_extendqisi2
	strb	r2, [r3]
	ldrb	r2, [r3]	@ zero_extendqisi2
	ldr	r3, [fp, #-20]
	strb	r2, [r3]
	ldr	r3, [fp, #-20]
	add	r3, r3, #3
	mvn	r2, #0
	strb	r2, [r3]
	ldr	r3, [fp, #-8]
	sub	r3, r3, #1
	str	r3, [fp, #-8]
	ldr	r3, [fp, #-16]
	add	r3, r3, #1
	str	r3, [fp, #-16]
	ldr	r3, [fp, #-20]
	add	r3, r3, #4
	str	r3, [fp, #-20]
.L229:
	ldr	r3, [fp, #-8]
	cmp	r3, #0
	bge	.L230
	b	.L211
.L221:
	ldr	r3, [fp, #-44]
	sub	r3, r3, #1
	str	r3, [fp, #-8]
	b	.L231
.L232:
	ldr	r3, [fp, #-16]
	ldrb	r2, [r3]	@ zero_extendqisi2
	ldr	r3, [fp, #-20]
	strb	r2, [r3]
	ldr	r3, [fp, #-8]
	sub	r3, r3, #1
	str	r3, [fp, #-8]
	ldr	r3, [fp, #-16]
	add	r3, r3, #2
	str	r3, [fp, #-16]
	ldr	r3, [fp, #-20]
	add	r3, r3, #1
	str	r3, [fp, #-20]
.L231:
	ldr	r3, [fp, #-8]
	cmp	r3, #0
	bge	.L232
	b	.L211
.L220:
	ldr	r3, [fp, #-44]
	sub	r3, r3, #1
	str	r3, [fp, #-8]
	b	.L233
.L234:
	ldr	r3, [fp, #-20]
	add	r2, r3, #2
	ldr	r3, [fp, #-16]
	ldrb	r3, [r3]	@ zero_extendqisi2
	strb	r3, [r2]
	ldr	r3, [fp, #-20]
	add	r3, r3, #1
	ldrb	r2, [r2]	@ zero_extendqisi2
	strb	r2, [r3]
	ldrb	r2, [r3]	@ zero_extendqisi2
	ldr	r3, [fp, #-20]
	strb	r2, [r3]
	ldr	r3, [fp, #-8]
	sub	r3, r3, #1
	str	r3, [fp, #-8]
	ldr	r3, [fp, #-16]
	add	r3, r3, #2
	str	r3, [fp, #-16]
	ldr	r3, [fp, #-20]
	add	r3, r3, #3
	str	r3, [fp, #-20]
.L233:
	ldr	r3, [fp, #-8]
	cmp	r3, #0
	bge	.L234
	b	.L211
.L219:
	ldr	r3, [fp, #-44]
	sub	r3, r3, #1
	str	r3, [fp, #-8]
	b	.L235
.L236:
	ldr	r3, [fp, #-20]
	add	r2, r3, #2
	ldr	r3, [fp, #-16]
	ldrb	r3, [r3]	@ zero_extendqisi2
	strb	r3, [r2]
	ldr	r3, [fp, #-20]
	add	r3, r3, #1
	ldrb	r2, [r2]	@ zero_extendqisi2
	strb	r2, [r3]
	ldrb	r2, [r3]	@ zero_extendqisi2
	ldr	r3, [fp, #-20]
	strb	r2, [r3]
	ldr	r3, [fp, #-20]
	add	r3, r3, #3
	ldr	r2, [fp, #-16]
	ldrb	r2, [r2, #1]	@ zero_extendqisi2
	strb	r2, [r3]
	ldr	r3, [fp, #-8]
	sub	r3, r3, #1
	str	r3, [fp, #-8]
	ldr	r3, [fp, #-16]
	add	r3, r3, #2
	str	r3, [fp, #-16]
	ldr	r3, [fp, #-20]
	add	r3, r3, #4
	str	r3, [fp, #-20]
.L235:
	ldr	r3, [fp, #-8]
	cmp	r3, #0
	bge	.L236
	b	.L211
.L216:
	ldr	r3, [fp, #-44]
	sub	r3, r3, #1
	str	r3, [fp, #-8]
	b	.L237
.L238:
	ldr	r3, [fp, #-16]
	ldrb	r2, [r3]	@ zero_extendqisi2
	ldr	r3, [fp, #-20]
	strb	r2, [r3]
	ldr	r3, [fp, #-20]
	add	r3, r3, #1
	ldr	r2, [fp, #-16]
	ldrb	r2, [r2, #1]	@ zero_extendqisi2
	strb	r2, [r3]
	ldr	r3, [fp, #-20]
	add	r3, r3, #2
	ldr	r2, [fp, #-16]
	ldrb	r2, [r2, #2]	@ zero_extendqisi2
	strb	r2, [r3]
	ldr	r3, [fp, #-20]
	add	r3, r3, #3
	mvn	r2, #0
	strb	r2, [r3]
	ldr	r3, [fp, #-8]
	sub	r3, r3, #1
	str	r3, [fp, #-8]
	ldr	r3, [fp, #-16]
	add	r3, r3, #3
	str	r3, [fp, #-16]
	ldr	r3, [fp, #-20]
	add	r3, r3, #4
	str	r3, [fp, #-20]
.L237:
	ldr	r3, [fp, #-8]
	cmp	r3, #0
	bge	.L238
	b	.L211
.L218:
	ldr	r3, [fp, #-44]
	sub	r3, r3, #1
	str	r3, [fp, #-8]
	b	.L239
.L240:
	ldr	r3, [fp, #-16]
	ldrb	r3, [r3]	@ zero_extendqisi2
	mov	r0, r3
	ldr	r3, [fp, #-16]
	add	r3, r3, #1
	ldrb	r3, [r3]	@ zero_extendqisi2
	mov	r1, r3
	ldr	r3, [fp, #-16]
	add	r3, r3, #2
	ldrb	r3, [r3]	@ zero_extendqisi2
	mov	r2, r3
	bl	stbi__compute_y
	mov	r3, r0
	mov	r2, r3
	ldr	r3, [fp, #-20]
	strb	r2, [r3]
	ldr	r3, [fp, #-8]
	sub	r3, r3, #1
	str	r3, [fp, #-8]
	ldr	r3, [fp, #-16]
	add	r3, r3, #3
	str	r3, [fp, #-16]
	ldr	r3, [fp, #-20]
	add	r3, r3, #1
	str	r3, [fp, #-20]
.L239:
	ldr	r3, [fp, #-8]
	cmp	r3, #0
	bge	.L240
	b	.L211
.L217:
	ldr	r3, [fp, #-44]
	sub	r3, r3, #1
	str	r3, [fp, #-8]
	b	.L241
.L242:
	ldr	r3, [fp, #-16]
	ldrb	r3, [r3]	@ zero_extendqisi2
	mov	r0, r3
	ldr	r3, [fp, #-16]
	add	r3, r3, #1
	ldrb	r3, [r3]	@ zero_extendqisi2
	mov	r1, r3
	ldr	r3, [fp, #-16]
	add	r3, r3, #2
	ldrb	r3, [r3]	@ zero_extendqisi2
	mov	r2, r3
	bl	stbi__compute_y
	mov	r3, r0
	mov	r2, r3
	ldr	r3, [fp, #-20]
	strb	r2, [r3]
	ldr	r3, [fp, #-20]
	add	r3, r3, #1
	mvn	r2, #0
	strb	r2, [r3]
	ldr	r3, [fp, #-8]
	sub	r3, r3, #1
	str	r3, [fp, #-8]
	ldr	r3, [fp, #-16]
	add	r3, r3, #3
	str	r3, [fp, #-16]
	ldr	r3, [fp, #-20]
	add	r3, r3, #2
	str	r3, [fp, #-20]
.L241:
	ldr	r3, [fp, #-8]
	cmp	r3, #0
	bge	.L242
	b	.L211
.L215:
	ldr	r3, [fp, #-44]
	sub	r3, r3, #1
	str	r3, [fp, #-8]
	b	.L243
.L244:
	ldr	r3, [fp, #-16]
	ldrb	r3, [r3]	@ zero_extendqisi2
	mov	r0, r3
	ldr	r3, [fp, #-16]
	add	r3, r3, #1
	ldrb	r3, [r3]	@ zero_extendqisi2
	mov	r1, r3
	ldr	r3, [fp, #-16]
	add	r3, r3, #2
	ldrb	r3, [r3]	@ zero_extendqisi2
	mov	r2, r3
	bl	stbi__compute_y
	mov	r3, r0
	mov	r2, r3
	ldr	r3, [fp, #-20]
	strb	r2, [r3]
	ldr	r3, [fp, #-8]
	sub	r3, r3, #1
	str	r3, [fp, #-8]
	ldr	r3, [fp, #-16]
	add	r3, r3, #4
	str	r3, [fp, #-16]
	ldr	r3, [fp, #-20]
	add	r3, r3, #1
	str	r3, [fp, #-20]
.L243:
	ldr	r3, [fp, #-8]
	cmp	r3, #0
	bge	.L244
	b	.L211
.L214:
	ldr	r3, [fp, #-44]
	sub	r3, r3, #1
	str	r3, [fp, #-8]
	b	.L245
.L246:
	ldr	r3, [fp, #-16]
	ldrb	r3, [r3]	@ zero_extendqisi2
	mov	r0, r3
	ldr	r3, [fp, #-16]
	add	r3, r3, #1
	ldrb	r3, [r3]	@ zero_extendqisi2
	mov	r1, r3
	ldr	r3, [fp, #-16]
	add	r3, r3, #2
	ldrb	r3, [r3]	@ zero_extendqisi2
	mov	r2, r3
	bl	stbi__compute_y
	mov	r3, r0
	mov	r2, r3
	ldr	r3, [fp, #-20]
	strb	r2, [r3]
	ldr	r3, [fp, #-20]
	add	r3, r3, #1
	ldr	r2, [fp, #-16]
	ldrb	r2, [r2, #3]	@ zero_extendqisi2
	strb	r2, [r3]
	ldr	r3, [fp, #-8]
	sub	r3, r3, #1
	str	r3, [fp, #-8]
	ldr	r3, [fp, #-16]
	add	r3, r3, #4
	str	r3, [fp, #-16]
	ldr	r3, [fp, #-20]
	add	r3, r3, #2
	str	r3, [fp, #-20]
.L245:
	ldr	r3, [fp, #-8]
	cmp	r3, #0
	bge	.L246
	b	.L211
.L212:
	ldr	r3, [fp, #-44]
	sub	r3, r3, #1
	str	r3, [fp, #-8]
	b	.L247
.L248:
	ldr	r3, [fp, #-16]
	ldrb	r2, [r3]	@ zero_extendqisi2
	ldr	r3, [fp, #-20]
	strb	r2, [r3]
	ldr	r3, [fp, #-20]
	add	r3, r3, #1
	ldr	r2, [fp, #-16]
	ldrb	r2, [r2, #1]	@ zero_extendqisi2
	strb	r2, [r3]
	ldr	r3, [fp, #-20]
	add	r3, r3, #2
	ldr	r2, [fp, #-16]
	ldrb	r2, [r2, #2]	@ zero_extendqisi2
	strb	r2, [r3]
	ldr	r3, [fp, #-8]
	sub	r3, r3, #1
	str	r3, [fp, #-8]
	ldr	r3, [fp, #-16]
	add	r3, r3, #4
	str	r3, [fp, #-16]
	ldr	r3, [fp, #-20]
	add	r3, r3, #3
	str	r3, [fp, #-20]
.L247:
	ldr	r3, [fp, #-8]
	cmp	r3, #0
	bge	.L248
	nop
.L211:
	ldr	r3, [fp, #-12]
	add	r3, r3, #1
	str	r3, [fp, #-12]
.L210:
	ldr	r3, [fp, #4]
	ldr	r2, [fp, #-12]
	cmp	r2, r3
	blt	.L249
	ldr	r0, [fp, #-32]
	bl	free
	ldr	r3, [fp, #-24]
.L208:
	mov	r0, r3
	sub	sp, fp, #4
	@ sp needed
	pop	{fp, pc}
	.size	stbi__convert_format, .-stbi__convert_format
	.align	2
	.syntax unified
	.arm
	.fpu vfpv3-d16
	.type	stbi__compute_y_16, %function
stbi__compute_y_16:
	@ args = 0, pretend = 0, frame = 16
	@ frame_needed = 1, uses_anonymous_args = 0
	@ link register save eliminated.
	str	fp, [sp, #-4]!
	add	fp, sp, #0
	sub	sp, sp, #20
	str	r0, [fp, #-8]
	str	r1, [fp, #-12]
	str	r2, [fp, #-16]
	ldr	r2, [fp, #-8]
	mov	r3, r2
	lsl	r3, r3, #2
	add	r3, r3, r2
	lsl	r3, r3, #1
	add	r3, r3, r2
	lsl	r2, r3, #3
	sub	r1, r2, r3
	ldr	r2, [fp, #-12]
	mov	r3, r2
	lsl	r3, r3, #2
	add	r3, r3, r2
	lsl	r2, r3, #4
	sub	r2, r2, r3
	lsl	r3, r2, #1
	mov	r2, r3
	mov	r3, r2
	add	r1, r1, r3
	ldr	r2, [fp, #-16]
	mov	r3, r2
	lsl	r3, r3, #3
	sub	r3, r3, r2
	lsl	r3, r3, #2
	add	r3, r3, r2
	add	r3, r1, r3
	asr	r3, r3, #8
	uxth	r3, r3
	mov	r0, r3
	add	sp, fp, #0
	@ sp needed
	ldr	fp, [sp], #4
	bx	lr
	.size	stbi__compute_y_16, .-stbi__compute_y_16
	.align	2
	.syntax unified
	.arm
	.fpu vfpv3-d16
	.type	stbi__convert_format16, %function
stbi__convert_format16:
	@ args = 4, pretend = 0, frame = 40
	@ frame_needed = 1, uses_anonymous_args = 0
	push	{fp, lr}
	add	fp, sp, #4
	sub	sp, sp, #40
	str	r0, [fp, #-32]
	str	r1, [fp, #-36]
	str	r2, [fp, #-40]
	str	r3, [fp, #-44]
	ldr	r2, [fp, #-40]
	ldr	r3, [fp, #-36]
	cmp	r2, r3
	bne	.L253
	ldr	r3, [fp, #-32]
	b	.L254
.L253:
	ldr	r3, [fp, #-40]
	ldr	r2, [fp, #-44]
	mul	r3, r2, r3
	ldr	r2, [fp, #4]
	mul	r3, r2, r3
	lsl	r3, r3, #1
	mov	r0, r3
	bl	stbi__malloc
	str	r0, [fp, #-24]
	ldr	r3, [fp, #-24]
	cmp	r3, #0
	bne	.L255
	ldr	r0, [fp, #-32]
	bl	free
	mov	r3, #0
	b	.L254
.L255:
	mov	r3, #0
	str	r3, [fp, #-12]
	b	.L256
.L295:
	ldr	r3, [fp, #-12]
	ldr	r2, [fp, #-44]
	mul	r3, r2, r3
	ldr	r2, [fp, #-36]
	mul	r3, r2, r3
	lsl	r3, r3, #1
	ldr	r2, [fp, #-32]
	add	r3, r2, r3
	str	r3, [fp, #-16]
	ldr	r3, [fp, #-12]
	ldr	r2, [fp, #-44]
	mul	r3, r2, r3
	ldr	r2, [fp, #-40]
	mul	r3, r2, r3
	lsl	r3, r3, #1
	ldr	r2, [fp, #-24]
	add	r3, r2, r3
	str	r3, [fp, #-20]
	ldr	r3, [fp, #-36]
	lsl	r2, r3, #3
	ldr	r3, [fp, #-40]
	add	r3, r2, r3
	sub	r3, r3, #10
	cmp	r3, #25
	ldrls	pc, [pc, r3, asl #2]
	b	.L257
.L259:
	.word	.L270
	.word	.L269
	.word	.L268
	.word	.L257
	.word	.L257
	.word	.L257
	.word	.L257
	.word	.L267
	.word	.L257
	.word	.L266
	.word	.L265
	.word	.L257
	.word	.L257
	.word	.L257
	.word	.L257
	.word	.L264
	.word	.L263
	.word	.L257
	.word	.L262
	.word	.L257
	.word	.L257
	.word	.L257
	.word	.L257
	.word	.L261
	.word	.L260
	.word	.L258
.L270:
	ldr	r3, [fp, #-44]
	sub	r3, r3, #1
	str	r3, [fp, #-8]
	b	.L271
.L272:
	ldr	r3, [fp, #-16]
	ldrh	r2, [r3]
	ldr	r3, [fp, #-20]
	strh	r2, [r3]	@ movhi
	ldr	r3, [fp, #-20]
	add	r3, r3, #2
	mvn	r2, #0
	strh	r2, [r3]	@ movhi
	ldr	r3, [fp, #-8]
	sub	r3, r3, #1
	str	r3, [fp, #-8]
	ldr	r3, [fp, #-16]
	add	r3, r3, #2
	str	r3, [fp, #-16]
	ldr	r3, [fp, #-20]
	add	r3, r3, #4
	str	r3, [fp, #-20]
.L271:
	ldr	r3, [fp, #-8]
	cmp	r3, #0
	bge	.L272
	b	.L257
.L269:
	ldr	r3, [fp, #-44]
	sub	r3, r3, #1
	str	r3, [fp, #-8]
	b	.L273
.L274:
	ldr	r3, [fp, #-20]
	add	r2, r3, #4
	ldr	r3, [fp, #-16]
	ldrh	r3, [r3]
	strh	r3, [r2]	@ movhi
	ldr	r3, [fp, #-20]
	add	r3, r3, #2
	ldrh	r2, [r2]
	strh	r2, [r3]	@ movhi
	ldrh	r2, [r3]
	ldr	r3, [fp, #-20]
	strh	r2, [r3]	@ movhi
	ldr	r3, [fp, #-8]
	sub	r3, r3, #1
	str	r3, [fp, #-8]
	ldr	r3, [fp, #-16]
	add	r3, r3, #2
	str	r3, [fp, #-16]
	ldr	r3, [fp, #-20]
	add	r3, r3, #6
	str	r3, [fp, #-20]
.L273:
	ldr	r3, [fp, #-8]
	cmp	r3, #0
	bge	.L274
	b	.L257
.L268:
	ldr	r3, [fp, #-44]
	sub	r3, r3, #1
	str	r3, [fp, #-8]
	b	.L275
.L276:
	ldr	r3, [fp, #-20]
	add	r2, r3, #4
	ldr	r3, [fp, #-16]
	ldrh	r3, [r3]
	strh	r3, [r2]	@ movhi
	ldr	r3, [fp, #-20]
	add	r3, r3, #2
	ldrh	r2, [r2]
	strh	r2, [r3]	@ movhi
	ldrh	r2, [r3]
	ldr	r3, [fp, #-20]
	strh	r2, [r3]	@ movhi
	ldr	r3, [fp, #-20]
	add	r3, r3, #6
	mvn	r2, #0
	strh	r2, [r3]	@ movhi
	ldr	r3, [fp, #-8]
	sub	r3, r3, #1
	str	r3, [fp, #-8]
	ldr	r3, [fp, #-16]
	add	r3, r3, #2
	str	r3, [fp, #-16]
	ldr	r3, [fp, #-20]
	add	r3, r3, #8
	str	r3, [fp, #-20]
.L275:
	ldr	r3, [fp, #-8]
	cmp	r3, #0
	bge	.L276
	b	.L257
.L267:
	ldr	r3, [fp, #-44]
	sub	r3, r3, #1
	str	r3, [fp, #-8]
	b	.L277
.L278:
	ldr	r3, [fp, #-16]
	ldrh	r2, [r3]
	ldr	r3, [fp, #-20]
	strh	r2, [r3]	@ movhi
	ldr	r3, [fp, #-8]
	sub	r3, r3, #1
	str	r3, [fp, #-8]
	ldr	r3, [fp, #-16]
	add	r3, r3, #4
	str	r3, [fp, #-16]
	ldr	r3, [fp, #-20]
	add	r3, r3, #2
	str	r3, [fp, #-20]
.L277:
	ldr	r3, [fp, #-8]
	cmp	r3, #0
	bge	.L278
	b	.L257
.L266:
	ldr	r3, [fp, #-44]
	sub	r3, r3, #1
	str	r3, [fp, #-8]
	b	.L279
.L280:
	ldr	r3, [fp, #-20]
	add	r2, r3, #4
	ldr	r3, [fp, #-16]
	ldrh	r3, [r3]
	strh	r3, [r2]	@ movhi
	ldr	r3, [fp, #-20]
	add	r3, r3, #2
	ldrh	r2, [r2]
	strh	r2, [r3]	@ movhi
	ldrh	r2, [r3]
	ldr	r3, [fp, #-20]
	strh	r2, [r3]	@ movhi
	ldr	r3, [fp, #-8]
	sub	r3, r3, #1
	str	r3, [fp, #-8]
	ldr	r3, [fp, #-16]
	add	r3, r3, #4
	str	r3, [fp, #-16]
	ldr	r3, [fp, #-20]
	add	r3, r3, #6
	str	r3, [fp, #-20]
.L279:
	ldr	r3, [fp, #-8]
	cmp	r3, #0
	bge	.L280
	b	.L257
.L265:
	ldr	r3, [fp, #-44]
	sub	r3, r3, #1
	str	r3, [fp, #-8]
	b	.L281
.L282:
	ldr	r3, [fp, #-20]
	add	r2, r3, #4
	ldr	r3, [fp, #-16]
	ldrh	r3, [r3]
	strh	r3, [r2]	@ movhi
	ldr	r3, [fp, #-20]
	add	r3, r3, #2
	ldrh	r2, [r2]
	strh	r2, [r3]	@ movhi
	ldrh	r2, [r3]
	ldr	r3, [fp, #-20]
	strh	r2, [r3]	@ movhi
	ldr	r3, [fp, #-20]
	add	r3, r3, #6
	ldr	r2, [fp, #-16]
	ldrh	r2, [r2, #2]
	strh	r2, [r3]	@ movhi
	ldr	r3, [fp, #-8]
	sub	r3, r3, #1
	str	r3, [fp, #-8]
	ldr	r3, [fp, #-16]
	add	r3, r3, #4
	str	r3, [fp, #-16]
	ldr	r3, [fp, #-20]
	add	r3, r3, #8
	str	r3, [fp, #-20]
.L281:
	ldr	r3, [fp, #-8]
	cmp	r3, #0
	bge	.L282
	b	.L257
.L262:
	ldr	r3, [fp, #-44]
	sub	r3, r3, #1
	str	r3, [fp, #-8]
	b	.L283
.L284:
	ldr	r3, [fp, #-16]
	ldrh	r2, [r3]
	ldr	r3, [fp, #-20]
	strh	r2, [r3]	@ movhi
	ldr	r3, [fp, #-20]
	add	r3, r3, #2
	ldr	r2, [fp, #-16]
	ldrh	r2, [r2, #2]
	strh	r2, [r3]	@ movhi
	ldr	r3, [fp, #-20]
	add	r3, r3, #4
	ldr	r2, [fp, #-16]
	ldrh	r2, [r2, #4]
	strh	r2, [r3]	@ movhi
	ldr	r3, [fp, #-20]
	add	r3, r3, #6
	mvn	r2, #0
	strh	r2, [r3]	@ movhi
	ldr	r3, [fp, #-8]
	sub	r3, r3, #1
	str	r3, [fp, #-8]
	ldr	r3, [fp, #-16]
	add	r3, r3, #6
	str	r3, [fp, #-16]
	ldr	r3, [fp, #-20]
	add	r3, r3, #8
	str	r3, [fp, #-20]
.L283:
	ldr	r3, [fp, #-8]
	cmp	r3, #0
	bge	.L284
	b	.L257
.L264:
	ldr	r3, [fp, #-44]
	sub	r3, r3, #1
	str	r3, [fp, #-8]
	b	.L285
.L286:
	ldr	r3, [fp, #-16]
	ldrh	r3, [r3]
	mov	r0, r3
	ldr	r3, [fp, #-16]
	add	r3, r3, #2
	ldrh	r3, [r3]
	mov	r1, r3
	ldr	r3, [fp, #-16]
	add	r3, r3, #4
	ldrh	r3, [r3]
	mov	r2, r3
	bl	stbi__compute_y_16
	mov	r3, r0
	mov	r2, r3
	ldr	r3, [fp, #-20]
	strh	r2, [r3]	@ movhi
	ldr	r3, [fp, #-8]
	sub	r3, r3, #1
	str	r3, [fp, #-8]
	ldr	r3, [fp, #-16]
	add	r3, r3, #6
	str	r3, [fp, #-16]
	ldr	r3, [fp, #-20]
	add	r3, r3, #2
	str	r3, [fp, #-20]
.L285:
	ldr	r3, [fp, #-8]
	cmp	r3, #0
	bge	.L286
	b	.L257
.L263:
	ldr	r3, [fp, #-44]
	sub	r3, r3, #1
	str	r3, [fp, #-8]
	b	.L287
.L288:
	ldr	r3, [fp, #-16]
	ldrh	r3, [r3]
	mov	r0, r3
	ldr	r3, [fp, #-16]
	add	r3, r3, #2
	ldrh	r3, [r3]
	mov	r1, r3
	ldr	r3, [fp, #-16]
	add	r3, r3, #4
	ldrh	r3, [r3]
	mov	r2, r3
	bl	stbi__compute_y_16
	mov	r3, r0
	mov	r2, r3
	ldr	r3, [fp, #-20]
	strh	r2, [r3]	@ movhi
	ldr	r3, [fp, #-20]
	add	r3, r3, #2
	mvn	r2, #0
	strh	r2, [r3]	@ movhi
	ldr	r3, [fp, #-8]
	sub	r3, r3, #1
	str	r3, [fp, #-8]
	ldr	r3, [fp, #-16]
	add	r3, r3, #6
	str	r3, [fp, #-16]
	ldr	r3, [fp, #-20]
	add	r3, r3, #4
	str	r3, [fp, #-20]
.L287:
	ldr	r3, [fp, #-8]
	cmp	r3, #0
	bge	.L288
	b	.L257
.L261:
	ldr	r3, [fp, #-44]
	sub	r3, r3, #1
	str	r3, [fp, #-8]
	b	.L289
.L290:
	ldr	r3, [fp, #-16]
	ldrh	r3, [r3]
	mov	r0, r3
	ldr	r3, [fp, #-16]
	add	r3, r3, #2
	ldrh	r3, [r3]
	mov	r1, r3
	ldr	r3, [fp, #-16]
	add	r3, r3, #4
	ldrh	r3, [r3]
	mov	r2, r3
	bl	stbi__compute_y_16
	mov	r3, r0
	mov	r2, r3
	ldr	r3, [fp, #-20]
	strh	r2, [r3]	@ movhi
	ldr	r3, [fp, #-8]
	sub	r3, r3, #1
	str	r3, [fp, #-8]
	ldr	r3, [fp, #-16]
	add	r3, r3, #8
	str	r3, [fp, #-16]
	ldr	r3, [fp, #-20]
	add	r3, r3, #2
	str	r3, [fp, #-20]
.L289:
	ldr	r3, [fp, #-8]
	cmp	r3, #0
	bge	.L290
	b	.L257
.L260:
	ldr	r3, [fp, #-44]
	sub	r3, r3, #1
	str	r3, [fp, #-8]
	b	.L291
.L292:
	ldr	r3, [fp, #-16]
	ldrh	r3, [r3]
	mov	r0, r3
	ldr	r3, [fp, #-16]
	add	r3, r3, #2
	ldrh	r3, [r3]
	mov	r1, r3
	ldr	r3, [fp, #-16]
	add	r3, r3, #4
	ldrh	r3, [r3]
	mov	r2, r3
	bl	stbi__compute_y_16
	mov	r3, r0
	mov	r2, r3
	ldr	r3, [fp, #-20]
	strh	r2, [r3]	@ movhi
	ldr	r3, [fp, #-20]
	add	r3, r3, #2
	ldr	r2, [fp, #-16]
	ldrh	r2, [r2, #6]
	strh	r2, [r3]	@ movhi
	ldr	r3, [fp, #-8]
	sub	r3, r3, #1
	str	r3, [fp, #-8]
	ldr	r3, [fp, #-16]
	add	r3, r3, #8
	str	r3, [fp, #-16]
	ldr	r3, [fp, #-20]
	add	r3, r3, #4
	str	r3, [fp, #-20]
.L291:
	ldr	r3, [fp, #-8]
	cmp	r3, #0
	bge	.L292
	b	.L257
.L258:
	ldr	r3, [fp, #-44]
	sub	r3, r3, #1
	str	r3, [fp, #-8]
	b	.L293
.L294:
	ldr	r3, [fp, #-16]
	ldrh	r2, [r3]
	ldr	r3, [fp, #-20]
	strh	r2, [r3]	@ movhi
	ldr	r3, [fp, #-20]
	add	r3, r3, #2
	ldr	r2, [fp, #-16]
	ldrh	r2, [r2, #2]
	strh	r2, [r3]	@ movhi
	ldr	r3, [fp, #-20]
	add	r3, r3, #4
	ldr	r2, [fp, #-16]
	ldrh	r2, [r2, #4]
	strh	r2, [r3]	@ movhi
	ldr	r3, [fp, #-8]
	sub	r3, r3, #1
	str	r3, [fp, #-8]
	ldr	r3, [fp, #-16]
	add	r3, r3, #8
	str	r3, [fp, #-16]
	ldr	r3, [fp, #-20]
	add	r3, r3, #6
	str	r3, [fp, #-20]
.L293:
	ldr	r3, [fp, #-8]
	cmp	r3, #0
	bge	.L294
	nop
.L257:
	ldr	r3, [fp, #-12]
	add	r3, r3, #1
	str	r3, [fp, #-12]
.L256:
	ldr	r3, [fp, #4]
	ldr	r2, [fp, #-12]
	cmp	r2, r3
	blt	.L295
	ldr	r0, [fp, #-32]
	bl	free
	ldr	r3, [fp, #-24]
.L254:
	mov	r0, r3
	sub	sp, fp, #4
	@ sp needed
	pop	{fp, pc}
	.size	stbi__convert_format16, .-stbi__convert_format16
	.align	2
	.syntax unified
	.arm
	.fpu vfpv3-d16
	.type	stbi__ldr_to_hdr, %function
stbi__ldr_to_hdr:
	@ args = 0, pretend = 0, frame = 32
	@ frame_needed = 1, uses_anonymous_args = 0
	push	{fp, lr}
	add	fp, sp, #4
	sub	sp, sp, #40
	str	r0, [fp, #-24]
	str	r1, [fp, #-28]
	str	r2, [fp, #-32]
	str	r3, [fp, #-36]
	ldr	r3, [fp, #-24]
	cmp	r3, #0
	bne	.L297
	mov	r3, #0
	b	.L298
.L297:
	mov	r3, #0
	str	r3, [sp]
	mov	r3, #4
	ldr	r2, [fp, #-36]
	ldr	r1, [fp, #-32]
	ldr	r0, [fp, #-28]
	bl	stbi__malloc_mad4
	str	r0, [fp, #-20]
	ldr	r3, [fp, #-20]
	cmp	r3, #0
	bne	.L299
	ldr	r0, [fp, #-24]
	bl	free
	mov	r3, #0
	b	.L298
.L299:
	ldr	r3, [fp, #-36]
	and	r3, r3, #1
	cmp	r3, #0
	beq	.L300
	ldr	r3, [fp, #-36]
	str	r3, [fp, #-16]
	b	.L301
.L300:
	ldr	r3, [fp, #-36]
	sub	r3, r3, #1
	str	r3, [fp, #-16]
.L301:
	mov	r3, #0
	str	r3, [fp, #-8]
	b	.L302
.L305:
	mov	r3, #0
	str	r3, [fp, #-12]
	b	.L303
.L304:
	ldr	r3, [fp, #-8]
	ldr	r2, [fp, #-36]
	mul	r2, r2, r3
	ldr	r3, [fp, #-12]
	add	r3, r2, r3
	mov	r2, r3
	ldr	r3, [fp, #-24]
	add	r3, r3, r2
	ldrb	r3, [r3]	@ zero_extendqisi2
	vmov	s15, r3	@ int
	vcvt.f32.s32	s14, s15
	vldr.32	s13, .L309
	vdiv.f32	s15, s14, s13
	vcvt.f64.f32	d7, s15
	movw	r3, #:lower16:stbi__l2h_gamma
	movt	r3, #:upper16:stbi__l2h_gamma
	vldr.32	s13, [r3]
	vcvt.f64.f32	d6, s13
	vmov.f64	d1, d6
	vmov.f64	d0, d7
	bl	pow
	vmov.f64	d6, d0
	movw	r3, #:lower16:stbi__l2h_scale
	movt	r3, #:upper16:stbi__l2h_scale
	vldr.32	s15, [r3]
	vcvt.f64.f32	d7, s15
	vmul.f64	d7, d6, d7
	ldr	r3, [fp, #-8]
	ldr	r2, [fp, #-36]
	mul	r2, r2, r3
	ldr	r3, [fp, #-12]
	add	r3, r2, r3
	lsl	r3, r3, #2
	ldr	r2, [fp, #-20]
	add	r3, r2, r3
	vcvt.f32.f64	s15, d7
	vstr.32	s15, [r3]
	ldr	r3, [fp, #-12]
	add	r3, r3, #1
	str	r3, [fp, #-12]
.L303:
	ldr	r2, [fp, #-12]
	ldr	r3, [fp, #-16]
	cmp	r2, r3
	blt	.L304
	ldr	r3, [fp, #-8]
	add	r3, r3, #1
	str	r3, [fp, #-8]
.L302:
	ldr	r3, [fp, #-28]
	ldr	r2, [fp, #-32]
	mul	r3, r2, r3
	ldr	r2, [fp, #-8]
	cmp	r2, r3
	blt	.L305
	ldr	r2, [fp, #-16]
	ldr	r3, [fp, #-36]
	cmp	r2, r3
	bge	.L306
	mov	r3, #0
	str	r3, [fp, #-8]
	b	.L307
.L308:
	ldr	r3, [fp, #-8]
	ldr	r2, [fp, #-36]
	mul	r2, r2, r3
	ldr	r3, [fp, #-16]
	add	r3, r2, r3
	mov	r2, r3
	ldr	r3, [fp, #-24]
	add	r3, r3, r2
	ldrb	r3, [r3]	@ zero_extendqisi2
	vmov	s15, r3	@ int
	vcvt.f32.s32	s14, s15
	ldr	r3, [fp, #-8]
	ldr	r2, [fp, #-36]
	mul	r2, r2, r3
	ldr	r3, [fp, #-16]
	add	r3, r2, r3
	lsl	r3, r3, #2
	ldr	r2, [fp, #-20]
	add	r3, r2, r3
	vldr.32	s13, .L309
	vdiv.f32	s15, s14, s13
	vstr.32	s15, [r3]
	ldr	r3, [fp, #-8]
	add	r3, r3, #1
	str	r3, [fp, #-8]
.L307:
	ldr	r3, [fp, #-28]
	ldr	r2, [fp, #-32]
	mul	r3, r2, r3
	ldr	r2, [fp, #-8]
	cmp	r2, r3
	blt	.L308
.L306:
	ldr	r0, [fp, #-24]
	bl	free
	ldr	r3, [fp, #-20]
.L298:
	mov	r0, r3
	sub	sp, fp, #4
	@ sp needed
	pop	{fp, pc}
.L310:
	.align	2
.L309:
	.word	1132396544
	.size	stbi__ldr_to_hdr, .-stbi__ldr_to_hdr
	.align	2
	.syntax unified
	.arm
	.fpu vfpv3-d16
	.type	stbi__hdr_to_ldr, %function
stbi__hdr_to_ldr:
	@ args = 0, pretend = 0, frame = 48
	@ frame_needed = 1, uses_anonymous_args = 0
	push	{fp, lr}
	add	fp, sp, #4
	sub	sp, sp, #48
	str	r0, [fp, #-32]
	str	r1, [fp, #-36]
	str	r2, [fp, #-40]
	str	r3, [fp, #-44]
	ldr	r3, [fp, #-32]
	cmp	r3, #0
	bne	.L312
	mov	r3, #0
	b	.L313
.L312:
	mov	r3, #0
	ldr	r2, [fp, #-44]
	ldr	r1, [fp, #-40]
	ldr	r0, [fp, #-36]
	bl	stbi__malloc_mad3
	str	r0, [fp, #-28]
	ldr	r3, [fp, #-28]
	cmp	r3, #0
	bne	.L314
	ldr	r0, [fp, #-32]
	bl	free
	mov	r3, #0
	b	.L313
.L314:
	ldr	r3, [fp, #-44]
	and	r3, r3, #1
	cmp	r3, #0
	beq	.L315
	ldr	r3, [fp, #-44]
	str	r3, [fp, #-16]
	b	.L316
.L315:
	ldr	r3, [fp, #-44]
	sub	r3, r3, #1
	str	r3, [fp, #-16]
.L316:
	mov	r3, #0
	str	r3, [fp, #-8]
	b	.L317
.L329:
	mov	r3, #0
	str	r3, [fp, #-12]
	b	.L318
.L323:
	ldr	r3, [fp, #-8]
	ldr	r2, [fp, #-44]
	mul	r2, r2, r3
	ldr	r3, [fp, #-12]
	add	r3, r2, r3
	lsl	r3, r3, #2
	ldr	r2, [fp, #-32]
	add	r3, r2, r3
	vldr.32	s14, [r3]
	movw	r3, #:lower16:stbi__h2l_scale_i
	movt	r3, #:upper16:stbi__h2l_scale_i
	vldr.32	s15, [r3]
	vmul.f32	s15, s14, s15
	vcvt.f64.f32	d7, s15
	movw	r3, #:lower16:stbi__h2l_gamma_i
	movt	r3, #:upper16:stbi__h2l_gamma_i
	vldr.32	s13, [r3]
	vcvt.f64.f32	d6, s13
	vmov.f64	d1, d6
	vmov.f64	d0, d7
	bl	pow
	vmov.f64	d7, d0
	vcvt.f32.f64	s15, d7
	vldr.32	s14, .L334
	vmul.f32	s15, s15, s14
	vmov.f32	s14, #5.0e-1
	vadd.f32	s15, s15, s14
	vstr.32	s15, [fp, #-20]
	vldr.32	s15, [fp, #-20]
	vcmpe.f32	s15, #0
	vmrs	APSR_nzcv, FPSCR
	bpl	.L319
	mov	r3, #0
	str	r3, [fp, #-20]	@ float
.L319:
	vldr.32	s15, [fp, #-20]
	vldr.32	s14, .L334
	vcmpe.f32	s15, s14
	vmrs	APSR_nzcv, FPSCR
	ble	.L321
	mov	r3, #0
	movt	r3, 17279
	str	r3, [fp, #-20]	@ float
.L321:
	vldr.32	s15, [fp, #-20]
	vcvt.s32.f32	s15, s15
	vstr.32	s15, [fp, #-48]	@ int
	ldr	r3, [fp, #-8]
	ldr	r2, [fp, #-44]
	mul	r2, r2, r3
	ldr	r3, [fp, #-12]
	add	r3, r2, r3
	mov	r2, r3
	ldr	r3, [fp, #-28]
	add	r3, r3, r2
	ldr	r2, [fp, #-48]
	uxtb	r2, r2
	strb	r2, [r3]
	ldr	r3, [fp, #-12]
	add	r3, r3, #1
	str	r3, [fp, #-12]
.L318:
	ldr	r2, [fp, #-12]
	ldr	r3, [fp, #-16]
	cmp	r2, r3
	blt	.L323
	ldr	r2, [fp, #-12]
	ldr	r3, [fp, #-44]
	cmp	r2, r3
	bge	.L324
	ldr	r3, [fp, #-8]
	ldr	r2, [fp, #-44]
	mul	r2, r2, r3
	ldr	r3, [fp, #-12]
	add	r3, r2, r3
	lsl	r3, r3, #2
	ldr	r2, [fp, #-32]
	add	r3, r2, r3
	vldr.32	s15, [r3]
	vldr.32	s14, .L334
	vmul.f32	s15, s15, s14
	vmov.f32	s14, #5.0e-1
	vadd.f32	s15, s15, s14
	vstr.32	s15, [fp, #-24]
	vldr.32	s15, [fp, #-24]
	vcmpe.f32	s15, #0
	vmrs	APSR_nzcv, FPSCR
	bpl	.L325
	mov	r3, #0
	str	r3, [fp, #-24]	@ float
.L325:
	vldr.32	s15, [fp, #-24]
	vldr.32	s14, .L334
	vcmpe.f32	s15, s14
	vmrs	APSR_nzcv, FPSCR
	ble	.L327
	mov	r3, #0
	movt	r3, 17279
	str	r3, [fp, #-24]	@ float
.L327:
	vldr.32	s15, [fp, #-24]
	vcvt.s32.f32	s15, s15
	vstr.32	s15, [fp, #-48]	@ int
	ldr	r3, [fp, #-8]
	ldr	r2, [fp, #-44]
	mul	r2, r2, r3
	ldr	r3, [fp, #-12]
	add	r3, r2, r3
	mov	r2, r3
	ldr	r3, [fp, #-28]
	add	r3, r3, r2
	ldr	r2, [fp, #-48]
	uxtb	r2, r2
	strb	r2, [r3]
.L324:
	ldr	r3, [fp, #-8]
	add	r3, r3, #1
	str	r3, [fp, #-8]
.L317:
	ldr	r3, [fp, #-36]
	ldr	r2, [fp, #-40]
	mul	r3, r2, r3
	ldr	r2, [fp, #-8]
	cmp	r2, r3
	blt	.L329
	ldr	r0, [fp, #-32]
	bl	free
	ldr	r3, [fp, #-28]
.L313:
	mov	r0, r3
	sub	sp, fp, #4
	@ sp needed
	pop	{fp, pc}
.L335:
	.align	2
.L334:
	.word	1132396544
	.size	stbi__hdr_to_ldr, .-stbi__hdr_to_ldr
	.align	2
	.syntax unified
	.arm
	.fpu vfpv3-d16
	.type	stbi__build_huffman, %function
stbi__build_huffman:
	@ args = 0, pretend = 0, frame = 40
	@ frame_needed = 1, uses_anonymous_args = 0
	push	{fp, lr}
	add	fp, sp, #4
	sub	sp, sp, #40
	str	r0, [fp, #-40]
	str	r1, [fp, #-44]
	mov	r3, #0
	str	r3, [fp, #-16]
	mov	r3, #0
	str	r3, [fp, #-8]
	b	.L337
.L340:
	mov	r3, #0
	str	r3, [fp, #-12]
	b	.L338
.L339:
	ldr	r3, [fp, #-8]
	uxtb	r2, r3
	ldr	r3, [fp, #-16]
	add	r1, r3, #1
	str	r1, [fp, #-16]
	add	r2, r2, #1
	uxtb	r1, r2
	ldr	r2, [fp, #-40]
	add	r3, r2, r3
	mov	r2, r1
	strb	r2, [r3, #1280]
	ldr	r3, [fp, #-12]
	add	r3, r3, #1
	str	r3, [fp, #-12]
.L338:
	ldr	r3, [fp, #-8]
	lsl	r3, r3, #2
	ldr	r2, [fp, #-44]
	add	r3, r2, r3
	ldr	r3, [r3]
	ldr	r2, [fp, #-12]
	cmp	r2, r3
	blt	.L339
	ldr	r3, [fp, #-8]
	add	r3, r3, #1
	str	r3, [fp, #-8]
.L337:
	ldr	r3, [fp, #-8]
	cmp	r3, #15
	ble	.L340
	ldr	r2, [fp, #-40]
	ldr	r3, [fp, #-16]
	add	r3, r2, r3
	add	r3, r3, #1280
	mov	r2, #0
	strb	r2, [r3]
	mov	r3, #0
	str	r3, [fp, #-20]
	mov	r3, #0
	str	r3, [fp, #-16]
	mov	r3, #1
	str	r3, [fp, #-12]
	b	.L341
.L346:
	ldr	r2, [fp, #-16]
	ldr	r3, [fp, #-20]
	sub	r3, r2, r3
	mov	r1, r3
	ldr	r2, [fp, #-40]
	ldr	r3, [fp, #-12]
	add	r3, r3, #400
	add	r3, r3, #2
	lsl	r3, r3, #2
	add	r3, r2, r3
	str	r1, [r3, #4]
	ldr	r2, [fp, #-40]
	ldr	r3, [fp, #-16]
	add	r3, r2, r3
	add	r3, r3, #1280
	ldrb	r3, [r3]	@ zero_extendqisi2
	mov	r2, r3
	ldr	r3, [fp, #-12]
	cmp	r3, r2
	bne	.L342
	b	.L343
.L344:
	ldr	r2, [fp, #-20]
	add	r3, r2, #1
	str	r3, [fp, #-20]
	ldr	r3, [fp, #-16]
	add	r1, r3, #1
	str	r1, [fp, #-16]
	uxth	r2, r2
	ldr	r1, [fp, #-40]
	add	r3, r3, #256
	lsl	r3, r3, #1
	add	r3, r1, r3
	strh	r2, [r3]	@ movhi
.L343:
	ldr	r2, [fp, #-40]
	ldr	r3, [fp, #-16]
	add	r3, r2, r3
	add	r3, r3, #1280
	ldrb	r3, [r3]	@ zero_extendqisi2
	mov	r2, r3
	ldr	r3, [fp, #-12]
	cmp	r3, r2
	beq	.L344
	ldr	r3, [fp, #-20]
	sub	r2, r3, #1
	ldr	r3, [fp, #-12]
	lsr	r3, r2, r3
	cmp	r3, #0
	beq	.L342
	mov	r3, #0
	b	.L345
.L342:
	ldr	r3, [fp, #-12]
	rsb	r3, r3, #16
	ldr	r2, [fp, #-20]
	lsl	r2, r2, r3
	ldr	r1, [fp, #-40]
	ldr	r3, [fp, #-12]
	add	r3, r3, #384
	lsl	r3, r3, #2
	add	r3, r1, r3
	str	r2, [r3, #4]
	ldr	r3, [fp, #-20]
	lsl	r3, r3, #1
	str	r3, [fp, #-20]
	ldr	r3, [fp, #-12]
	add	r3, r3, #1
	str	r3, [fp, #-12]
.L341:
	ldr	r3, [fp, #-12]
	cmp	r3, #16
	ble	.L346
	ldr	r2, [fp, #-40]
	ldr	r3, [fp, #-12]
	add	r3, r3, #384
	lsl	r3, r3, #2
	add	r3, r2, r3
	mvn	r2, #0
	str	r2, [r3, #4]
	ldr	r3, [fp, #-40]
	mov	r2, #512
	mov	r1, #255
	mov	r0, r3
	bl	memset
	mov	r3, #0
	str	r3, [fp, #-8]
	b	.L347
.L351:
	ldr	r2, [fp, #-40]
	ldr	r3, [fp, #-8]
	add	r3, r2, r3
	add	r3, r3, #1280
	ldrb	r3, [r3]	@ zero_extendqisi2
	str	r3, [fp, #-24]
	ldr	r3, [fp, #-24]
	cmp	r3, #9
	bgt	.L348
	ldr	r2, [fp, #-40]
	ldr	r3, [fp, #-8]
	add	r3, r3, #256
	lsl	r3, r3, #1
	add	r3, r2, r3
	ldrh	r3, [r3]
	mov	r2, r3
	ldr	r3, [fp, #-24]
	rsb	r3, r3, #9
	lsl	r3, r2, r3
	str	r3, [fp, #-28]
	ldr	r3, [fp, #-24]
	rsb	r3, r3, #9
	mov	r2, #1
	lsl	r3, r2, r3
	str	r3, [fp, #-32]
	mov	r3, #0
	str	r3, [fp, #-12]
	b	.L349
.L350:
	ldr	r2, [fp, #-28]
	ldr	r3, [fp, #-12]
	add	r3, r2, r3
	ldr	r2, [fp, #-8]
	uxtb	r1, r2
	ldr	r2, [fp, #-40]
	strb	r1, [r2, r3]
	ldr	r3, [fp, #-12]
	add	r3, r3, #1
	str	r3, [fp, #-12]
.L349:
	ldr	r2, [fp, #-12]
	ldr	r3, [fp, #-32]
	cmp	r2, r3
	blt	.L350
.L348:
	ldr	r3, [fp, #-8]
	add	r3, r3, #1
	str	r3, [fp, #-8]
.L347:
	ldr	r2, [fp, #-8]
	ldr	r3, [fp, #-16]
	cmp	r2, r3
	blt	.L351
	mov	r3, #1
.L345:
	mov	r0, r3
	sub	sp, fp, #4
	@ sp needed
	pop	{fp, pc}
	.size	stbi__build_huffman, .-stbi__build_huffman
	.align	2
	.syntax unified
	.arm
	.fpu vfpv3-d16
	.type	stbi__build_fast_ac, %function
stbi__build_fast_ac:
	@ args = 0, pretend = 0, frame = 40
	@ frame_needed = 1, uses_anonymous_args = 0
	@ link register save eliminated.
	str	fp, [sp, #-4]!
	add	fp, sp, #0
	sub	sp, sp, #44
	str	r0, [fp, #-40]
	str	r1, [fp, #-44]
	mov	r3, #0
	str	r3, [fp, #-8]
	b	.L353
.L356:
	ldr	r2, [fp, #-44]
	ldr	r3, [fp, #-8]
	add	r3, r2, r3
	ldrb	r3, [r3]
	strb	r3, [fp, #-13]
	ldr	r3, [fp, #-8]
	lsl	r3, r3, #1
	ldr	r2, [fp, #-40]
	add	r3, r2, r3
	mov	r2, #0
	strh	r2, [r3]	@ movhi
	ldrb	r3, [fp, #-13]	@ zero_extendqisi2
	cmp	r3, #255
	beq	.L354
	ldrb	r3, [fp, #-13]	@ zero_extendqisi2
	ldr	r2, [fp, #-44]
	add	r3, r2, r3
	ldrb	r3, [r3, #1024]	@ zero_extendqisi2
	str	r3, [fp, #-20]
	ldr	r3, [fp, #-20]
	asr	r3, r3, #4
	and	r3, r3, #15
	str	r3, [fp, #-24]
	ldr	r3, [fp, #-20]
	and	r3, r3, #15
	str	r3, [fp, #-28]
	ldrb	r3, [fp, #-13]	@ zero_extendqisi2
	ldr	r2, [fp, #-44]
	add	r3, r2, r3
	ldrb	r3, [r3, #1280]	@ zero_extendqisi2
	str	r3, [fp, #-32]
	ldr	r3, [fp, #-28]
	cmp	r3, #0
	beq	.L354
	ldr	r2, [fp, #-32]
	ldr	r3, [fp, #-28]
	add	r3, r2, r3
	cmp	r3, #9
	bgt	.L354
	ldr	r2, [fp, #-8]
	ldr	r3, [fp, #-32]
	lsl	r3, r2, r3
	ubfx	r2, r3, #0, #9
	ldr	r3, [fp, #-28]
	rsb	r3, r3, #9
	asr	r3, r2, r3
	str	r3, [fp, #-12]
	ldr	r3, [fp, #-28]
	sub	r3, r3, #1
	mov	r2, #1
	lsl	r3, r2, r3
	str	r3, [fp, #-36]
	ldr	r2, [fp, #-12]
	ldr	r3, [fp, #-36]
	cmp	r2, r3
	bge	.L355
	mvn	r2, #0
	ldr	r3, [fp, #-28]
	lsl	r2, r2, r3
	ldr	r3, [fp, #-12]
	add	r3, r2, r3
	add	r3, r3, #1
	str	r3, [fp, #-12]
.L355:
	ldr	r3, [fp, #-12]
	cmn	r3, #128
	blt	.L354
	ldr	r3, [fp, #-12]
	cmp	r3, #127
	bgt	.L354
	ldr	r3, [fp, #-12]
	uxth	r3, r3
	lsl	r3, r3, #4
	uxth	r2, r3
	ldr	r3, [fp, #-24]
	uxth	r3, r3
	add	r3, r2, r3
	uxth	r3, r3
	lsl	r3, r3, #4
	uxth	r2, r3
	ldr	r3, [fp, #-32]
	uxth	r1, r3
	ldr	r3, [fp, #-28]
	uxth	r3, r3
	add	r3, r1, r3
	uxth	r3, r3
	add	r3, r2, r3
	uxth	r1, r3
	ldr	r3, [fp, #-8]
	lsl	r3, r3, #1
	ldr	r2, [fp, #-40]
	add	r3, r2, r3
	sxth	r2, r1
	strh	r2, [r3]	@ movhi
.L354:
	ldr	r3, [fp, #-8]
	add	r3, r3, #1
	str	r3, [fp, #-8]
.L353:
	ldr	r3, [fp, #-8]
	cmp	r3, #512
	blt	.L356
	nop
	add	sp, fp, #0
	@ sp needed
	ldr	fp, [sp], #4
	bx	lr
	.size	stbi__build_fast_ac, .-stbi__build_fast_ac
	.align	2
	.syntax unified
	.arm
	.fpu vfpv3-d16
	.type	stbi__grow_buffer_unsafe, %function
stbi__grow_buffer_unsafe:
	@ args = 0, pretend = 0, frame = 16
	@ frame_needed = 1, uses_anonymous_args = 0
	push	{fp, lr}
	add	fp, sp, #4
	sub	sp, sp, #16
	str	r0, [fp, #-16]
.L364:
	ldr	r3, [fp, #-16]
	add	r3, r3, #16384
	ldr	r3, [r3, #1992]
	cmp	r3, #0
	bne	.L358
	ldr	r3, [fp, #-16]
	ldr	r3, [r3]
	mov	r0, r3
	bl	stbi__get8
	mov	r3, r0
	b	.L359
.L358:
	mov	r3, #0
.L359:
	str	r3, [fp, #-12]
	ldr	r3, [fp, #-12]
	cmp	r3, #255
	bne	.L360
	ldr	r3, [fp, #-16]
	ldr	r3, [r3]
	mov	r0, r3
	bl	stbi__get8
	mov	r3, r0
	str	r3, [fp, #-8]
	b	.L361
.L362:
	ldr	r3, [fp, #-16]
	ldr	r3, [r3]
	mov	r0, r3
	bl	stbi__get8
	mov	r3, r0
	str	r3, [fp, #-8]
.L361:
	ldr	r3, [fp, #-8]
	cmp	r3, #255
	beq	.L362
	ldr	r3, [fp, #-8]
	cmp	r3, #0
	beq	.L360
	ldr	r3, [fp, #-8]
	uxtb	r2, r3
	ldr	r3, [fp, #-16]
	add	r3, r3, #16384
	strb	r2, [r3, #1988]
	ldr	r3, [fp, #-16]
	add	r3, r3, #16384
	mov	r2, r3
	mov	r3, #1
	str	r3, [r2, #1992]
	b	.L357
.L360:
	ldr	r3, [fp, #-16]
	add	r3, r3, #16384
	ldr	r2, [r3, #1980]
	ldr	r3, [fp, #-16]
	add	r3, r3, #16384
	ldr	r3, [r3, #1984]
	rsb	r3, r3, #24
	ldr	r1, [fp, #-12]
	lsl	r3, r1, r3
	orr	r3, r2, r3
	ldr	r2, [fp, #-16]
	add	r2, r2, #16384
	str	r3, [r2, #1980]
	ldr	r3, [fp, #-16]
	add	r3, r3, #16384
	ldr	r3, [r3, #1984]
	add	r3, r3, #8
	ldr	r2, [fp, #-16]
	add	r2, r2, #16384
	str	r3, [r2, #1984]
	ldr	r3, [fp, #-16]
	add	r3, r3, #16384
	ldr	r3, [r3, #1984]
	cmp	r3, #24
	ble	.L364
.L357:
	sub	sp, fp, #4
	@ sp needed
	pop	{fp, pc}
	.size	stbi__grow_buffer_unsafe, .-stbi__grow_buffer_unsafe
	.section	.rodata
	.align	2
	.type	stbi__bmask, %object
	.size	stbi__bmask, 68
stbi__bmask:
	.word	0
	.word	1
	.word	3
	.word	7
	.word	15
	.word	31
	.word	63
	.word	127
	.word	255
	.word	511
	.word	1023
	.word	2047
	.word	4095
	.word	8191
	.word	16383
	.word	32767
	.word	65535
	.text
	.align	2
	.syntax unified
	.arm
	.fpu vfpv3-d16
	.type	stbi__jpeg_huff_decode, %function
stbi__jpeg_huff_decode:
	@ args = 0, pretend = 0, frame = 24
	@ frame_needed = 1, uses_anonymous_args = 0
	push	{fp, lr}
	add	fp, sp, #4
	sub	sp, sp, #24
	str	r0, [fp, #-24]
	str	r1, [fp, #-28]
	ldr	r3, [fp, #-24]
	add	r3, r3, #16384
	ldr	r3, [r3, #1984]
	cmp	r3, #15
	bgt	.L366
	ldr	r0, [fp, #-24]
	bl	stbi__grow_buffer_unsafe
.L366:
	ldr	r3, [fp, #-24]
	add	r3, r3, #16384
	ldr	r3, [r3, #1980]
	lsr	r3, r3, #23
	str	r3, [fp, #-12]
	ldr	r2, [fp, #-28]
	ldr	r3, [fp, #-12]
	add	r3, r2, r3
	ldrb	r3, [r3]	@ zero_extendqisi2
	str	r3, [fp, #-8]
	ldr	r3, [fp, #-8]
	cmp	r3, #254
	bgt	.L367
	ldr	r2, [fp, #-28]
	ldr	r3, [fp, #-8]
	add	r3, r2, r3
	add	r3, r3, #1280
	ldrb	r3, [r3]	@ zero_extendqisi2
	str	r3, [fp, #-16]
	ldr	r3, [fp, #-24]
	add	r3, r3, #16384
	ldr	r3, [r3, #1984]
	ldr	r2, [fp, #-16]
	cmp	r2, r3
	ble	.L368
	mvn	r3, #0
	b	.L369
.L368:
	ldr	r3, [fp, #-24]
	add	r3, r3, #16384
	ldr	r2, [r3, #1980]
	ldr	r3, [fp, #-16]
	lsl	r3, r2, r3
	ldr	r2, [fp, #-24]
	add	r2, r2, #16384
	str	r3, [r2, #1980]
	ldr	r3, [fp, #-24]
	add	r3, r3, #16384
	ldr	r2, [r3, #1984]
	ldr	r3, [fp, #-16]
	sub	r3, r2, r3
	ldr	r2, [fp, #-24]
	add	r2, r2, #16384
	str	r3, [r2, #1984]
	ldr	r2, [fp, #-28]
	ldr	r3, [fp, #-8]
	add	r3, r2, r3
	add	r3, r3, #1024
	ldrb	r3, [r3]	@ zero_extendqisi2
	b	.L369
.L367:
	ldr	r3, [fp, #-24]
	add	r3, r3, #16384
	ldr	r3, [r3, #1980]
	lsr	r3, r3, #16
	str	r3, [fp, #-20]
	mov	r3, #10
	str	r3, [fp, #-8]
.L372:
	ldr	r2, [fp, #-28]
	ldr	r3, [fp, #-8]
	add	r3, r3, #384
	lsl	r3, r3, #2
	add	r3, r2, r3
	ldr	r3, [r3, #4]
	ldr	r2, [fp, #-20]
	cmp	r2, r3
	bcc	.L376
	ldr	r3, [fp, #-8]
	add	r3, r3, #1
	str	r3, [fp, #-8]
	b	.L372
.L376:
	nop
	ldr	r3, [fp, #-8]
	cmp	r3, #17
	bne	.L373
	ldr	r3, [fp, #-24]
	add	r3, r3, #16384
	ldr	r3, [r3, #1984]
	sub	r3, r3, #16
	ldr	r2, [fp, #-24]
	add	r2, r2, #16384
	str	r3, [r2, #1984]
	mvn	r3, #0
	b	.L369
.L373:
	ldr	r3, [fp, #-24]
	add	r3, r3, #16384
	ldr	r3, [r3, #1984]
	ldr	r2, [fp, #-8]
	cmp	r2, r3
	ble	.L374
	mvn	r3, #0
	b	.L369
.L374:
	ldr	r3, [fp, #-24]
	add	r3, r3, #16384
	ldr	r2, [r3, #1980]
	ldr	r3, [fp, #-8]
	rsb	r3, r3, #32
	lsr	r2, r2, r3
	movw	r3, #:lower16:stbi__bmask
	movt	r3, #:upper16:stbi__bmask
	ldr	r1, [fp, #-8]
	ldr	r3, [r3, r1, lsl #2]
	and	r2, r2, r3
	ldr	r1, [fp, #-28]
	ldr	r3, [fp, #-8]
	add	r3, r3, #400
	add	r3, r3, #2
	lsl	r3, r3, #2
	add	r3, r1, r3
	ldr	r3, [r3, #4]
	add	r3, r2, r3
	str	r3, [fp, #-12]
	ldr	r3, [fp, #-24]
	add	r3, r3, #16384
	ldr	r2, [r3, #1984]
	ldr	r3, [fp, #-8]
	sub	r3, r2, r3
	ldr	r2, [fp, #-24]
	add	r2, r2, #16384
	str	r3, [r2, #1984]
	ldr	r3, [fp, #-24]
	add	r3, r3, #16384
	ldr	r2, [r3, #1980]
	ldr	r3, [fp, #-8]
	lsl	r3, r2, r3
	ldr	r2, [fp, #-24]
	add	r2, r2, #16384
	str	r3, [r2, #1980]
	ldr	r2, [fp, #-28]
	ldr	r3, [fp, #-12]
	add	r3, r2, r3
	add	r3, r3, #1024
	ldrb	r3, [r3]	@ zero_extendqisi2
.L369:
	mov	r0, r3
	sub	sp, fp, #4
	@ sp needed
	pop	{fp, pc}
	.size	stbi__jpeg_huff_decode, .-stbi__jpeg_huff_decode
	.section	.rodata
	.align	2
	.type	stbi__jbias, %object
	.size	stbi__jbias, 64
stbi__jbias:
	.word	0
	.word	-1
	.word	-3
	.word	-7
	.word	-15
	.word	-31
	.word	-63
	.word	-127
	.word	-255
	.word	-511
	.word	-1023
	.word	-2047
	.word	-4095
	.word	-8191
	.word	-16383
	.word	-32767
	.text
	.align	2
	.syntax unified
	.arm
	.fpu vfpv3-d16
	.type	stbi__extend_receive, %function
stbi__extend_receive:
	@ args = 0, pretend = 0, frame = 16
	@ frame_needed = 1, uses_anonymous_args = 0
	push	{fp, lr}
	add	fp, sp, #4
	sub	sp, sp, #16
	str	r0, [fp, #-16]
	str	r1, [fp, #-20]
	ldr	r3, [fp, #-16]
	add	r3, r3, #16384
	ldr	r3, [r3, #1984]
	ldr	r2, [fp, #-20]
	cmp	r2, r3
	ble	.L378
	ldr	r0, [fp, #-16]
	bl	stbi__grow_buffer_unsafe
.L378:
	ldr	r3, [fp, #-16]
	add	r3, r3, #16384
	ldr	r3, [r3, #1980]
	asr	r3, r3, #31
	str	r3, [fp, #-8]
	ldr	r3, [fp, #-16]
	add	r3, r3, #16384
	ldr	r2, [r3, #1980]
	ldr	r3, [fp, #-20]
	rsb	r3, r3, #32
	ror	r3, r2, r3
	str	r3, [fp, #-12]
	movw	r3, #:lower16:stbi__bmask
	movt	r3, #:upper16:stbi__bmask
	ldr	r2, [fp, #-20]
	ldr	r3, [r3, r2, lsl #2]
	mvn	r2, r3
	ldr	r3, [fp, #-12]
	and	r3, r3, r2
	ldr	r2, [fp, #-16]
	add	r2, r2, #16384
	str	r3, [r2, #1980]
	movw	r3, #:lower16:stbi__bmask
	movt	r3, #:upper16:stbi__bmask
	ldr	r2, [fp, #-20]
	ldr	r3, [r3, r2, lsl #2]
	ldr	r2, [fp, #-12]
	and	r3, r3, r2
	str	r3, [fp, #-12]
	ldr	r3, [fp, #-16]
	add	r3, r3, #16384
	ldr	r2, [r3, #1984]
	ldr	r3, [fp, #-20]
	sub	r3, r2, r3
	ldr	r2, [fp, #-16]
	add	r2, r2, #16384
	str	r3, [r2, #1984]
	movw	r3, #:lower16:stbi__jbias
	movt	r3, #:upper16:stbi__jbias
	ldr	r2, [fp, #-20]
	ldr	r2, [r3, r2, lsl #2]
	ldr	r3, [fp, #-8]
	mvn	r3, r3
	and	r3, r3, r2
	mov	r2, r3
	ldr	r3, [fp, #-12]
	add	r3, r2, r3
	mov	r0, r3
	sub	sp, fp, #4
	@ sp needed
	pop	{fp, pc}
	.size	stbi__extend_receive, .-stbi__extend_receive
	.align	2
	.syntax unified
	.arm
	.fpu vfpv3-d16
	.type	stbi__jpeg_get_bits, %function
stbi__jpeg_get_bits:
	@ args = 0, pretend = 0, frame = 16
	@ frame_needed = 1, uses_anonymous_args = 0
	push	{fp, lr}
	add	fp, sp, #4
	sub	sp, sp, #16
	str	r0, [fp, #-16]
	str	r1, [fp, #-20]
	ldr	r3, [fp, #-16]
	add	r3, r3, #16384
	ldr	r3, [r3, #1984]
	ldr	r2, [fp, #-20]
	cmp	r2, r3
	ble	.L381
	ldr	r0, [fp, #-16]
	bl	stbi__grow_buffer_unsafe
.L381:
	ldr	r3, [fp, #-16]
	add	r3, r3, #16384
	ldr	r2, [r3, #1980]
	ldr	r3, [fp, #-20]
	rsb	r3, r3, #32
	ror	r3, r2, r3
	str	r3, [fp, #-8]
	movw	r3, #:lower16:stbi__bmask
	movt	r3, #:upper16:stbi__bmask
	ldr	r2, [fp, #-20]
	ldr	r3, [r3, r2, lsl #2]
	mvn	r2, r3
	ldr	r3, [fp, #-8]
	and	r3, r3, r2
	ldr	r2, [fp, #-16]
	add	r2, r2, #16384
	str	r3, [r2, #1980]
	movw	r3, #:lower16:stbi__bmask
	movt	r3, #:upper16:stbi__bmask
	ldr	r2, [fp, #-20]
	ldr	r3, [r3, r2, lsl #2]
	ldr	r2, [fp, #-8]
	and	r3, r3, r2
	str	r3, [fp, #-8]
	ldr	r3, [fp, #-16]
	add	r3, r3, #16384
	ldr	r2, [r3, #1984]
	ldr	r3, [fp, #-20]
	sub	r3, r2, r3
	ldr	r2, [fp, #-16]
	add	r2, r2, #16384
	str	r3, [r2, #1984]
	ldr	r3, [fp, #-8]
	mov	r0, r3
	sub	sp, fp, #4
	@ sp needed
	pop	{fp, pc}
	.size	stbi__jpeg_get_bits, .-stbi__jpeg_get_bits
	.align	2
	.syntax unified
	.arm
	.fpu vfpv3-d16
	.type	stbi__jpeg_get_bit, %function
stbi__jpeg_get_bit:
	@ args = 0, pretend = 0, frame = 16
	@ frame_needed = 1, uses_anonymous_args = 0
	push	{fp, lr}
	add	fp, sp, #4
	sub	sp, sp, #16
	str	r0, [fp, #-16]
	ldr	r3, [fp, #-16]
	add	r3, r3, #16384
	ldr	r3, [r3, #1984]
	cmp	r3, #0
	bgt	.L384
	ldr	r0, [fp, #-16]
	bl	stbi__grow_buffer_unsafe
.L384:
	ldr	r3, [fp, #-16]
	add	r3, r3, #16384
	ldr	r3, [r3, #1980]
	str	r3, [fp, #-8]
	ldr	r3, [fp, #-16]
	add	r3, r3, #16384
	ldr	r3, [r3, #1980]
	lsl	r3, r3, #1
	ldr	r2, [fp, #-16]
	add	r2, r2, #16384
	str	r3, [r2, #1980]
	ldr	r3, [fp, #-16]
	add	r3, r3, #16384
	ldr	r3, [r3, #1984]
	sub	r3, r3, #1
	ldr	r2, [fp, #-16]
	add	r2, r2, #16384
	str	r3, [r2, #1984]
	ldr	r3, [fp, #-8]
	and	r3, r3, #-2147483648
	mov	r0, r3
	sub	sp, fp, #4
	@ sp needed
	pop	{fp, pc}
	.size	stbi__jpeg_get_bit, .-stbi__jpeg_get_bit
	.section	.rodata
	.align	2
	.type	stbi__jpeg_dezigzag, %object
	.size	stbi__jpeg_dezigzag, 79
stbi__jpeg_dezigzag:
	.byte	0
	.byte	1
	.byte	8
	.byte	16
	.byte	9
	.byte	2
	.byte	3
	.byte	10
	.byte	17
	.byte	24
	.byte	32
	.byte	25
	.byte	18
	.byte	11
	.byte	4
	.byte	5
	.byte	12
	.byte	19
	.byte	26
	.byte	33
	.byte	40
	.byte	48
	.byte	41
	.byte	34
	.byte	27
	.byte	20
	.byte	13
	.byte	6
	.byte	7
	.byte	14
	.byte	21
	.byte	28
	.byte	35
	.byte	42
	.byte	49
	.byte	56
	.byte	57
	.byte	50
	.byte	43
	.byte	36
	.byte	29
	.byte	22
	.byte	15
	.byte	23
	.byte	30
	.byte	37
	.byte	44
	.byte	51
	.byte	58
	.byte	59
	.byte	52
	.byte	45
	.byte	38
	.byte	31
	.byte	39
	.byte	46
	.byte	53
	.byte	60
	.byte	61
	.byte	54
	.byte	47
	.byte	55
	.byte	62
	.byte	63
	.byte	63
	.byte	63
	.byte	63
	.byte	63
	.byte	63
	.byte	63
	.byte	63
	.byte	63
	.byte	63
	.byte	63
	.byte	63
	.byte	63
	.byte	63
	.byte	63
	.byte	63
	.text
	.align	2
	.syntax unified
	.arm
	.fpu vfpv3-d16
	.type	stbi__jpeg_decode_block, %function
stbi__jpeg_decode_block:
	@ args = 12, pretend = 0, frame = 56
	@ frame_needed = 1, uses_anonymous_args = 0
	push	{fp, lr}
	add	fp, sp, #4
	sub	sp, sp, #56
	str	r0, [fp, #-48]
	str	r1, [fp, #-52]
	str	r2, [fp, #-56]
	str	r3, [fp, #-60]
	ldr	r3, [fp, #-48]
	add	r3, r3, #16384
	ldr	r3, [r3, #1984]
	cmp	r3, #15
	bgt	.L387
	ldr	r0, [fp, #-48]
	bl	stbi__grow_buffer_unsafe
.L387:
	ldr	r1, [fp, #-56]
	ldr	r0, [fp, #-48]
	bl	stbi__jpeg_huff_decode
	str	r0, [fp, #-12]
	ldr	r3, [fp, #-12]
	cmp	r3, #0
	bge	.L388
	mov	r3, #0
	b	.L389
.L388:
	mov	r2, #128
	mov	r1, #0
	ldr	r0, [fp, #-52]
	bl	memset
	ldr	r3, [fp, #-12]
	cmp	r3, #0
	beq	.L390
	ldr	r1, [fp, #-12]
	ldr	r0, [fp, #-48]
	bl	stbi__extend_receive
	mov	r3, r0
	b	.L391
.L390:
	mov	r3, #0
.L391:
	str	r3, [fp, #-16]
	ldr	r1, [fp, #-48]
	ldr	r2, [fp, #8]
	mov	r3, r2
	lsl	r3, r3, #3
	add	r3, r3, r2
	lsl	r3, r3, #3
	add	r3, r1, r3
	add	r3, r3, #17920
	add	r3, r3, #180
	ldr	r3, [r3]
	ldr	r2, [fp, #-16]
	add	r3, r2, r3
	str	r3, [fp, #-20]
	ldr	r1, [fp, #-48]
	ldr	r2, [fp, #8]
	mov	r3, r2
	lsl	r3, r3, #3
	add	r3, r3, r2
	lsl	r3, r3, #3
	add	r3, r1, r3
	add	r3, r3, #17920
	add	r3, r3, #180
	ldr	r2, [fp, #-20]
	str	r2, [r3]
	ldr	r3, [fp, #-20]
	uxth	r2, r3
	ldr	r3, [fp, #12]
	ldrh	r3, [r3]
	smulbb	r3, r2, r3
	uxth	r3, r3
	sxth	r2, r3
	ldr	r3, [fp, #-52]
	strh	r2, [r3]	@ movhi
	mov	r3, #1
	str	r3, [fp, #-8]
.L399:
	ldr	r3, [fp, #-48]
	add	r3, r3, #16384
	ldr	r3, [r3, #1984]
	cmp	r3, #15
	bgt	.L392
	ldr	r0, [fp, #-48]
	bl	stbi__grow_buffer_unsafe
.L392:
	ldr	r3, [fp, #-48]
	add	r3, r3, #16384
	ldr	r3, [r3, #1980]
	lsr	r3, r3, #23
	str	r3, [fp, #-24]
	ldr	r3, [fp, #-24]
	lsl	r3, r3, #1
	ldr	r2, [fp, #4]
	add	r3, r2, r3
	ldrsh	r3, [r3]
	str	r3, [fp, #-28]
	ldr	r3, [fp, #-28]
	cmp	r3, #0
	beq	.L393
	ldr	r3, [fp, #-28]
	asr	r3, r3, #4
	and	r3, r3, #15
	ldr	r2, [fp, #-8]
	add	r3, r2, r3
	str	r3, [fp, #-8]
	ldr	r3, [fp, #-28]
	and	r3, r3, #15
	str	r3, [fp, #-32]
	ldr	r3, [fp, #-48]
	add	r3, r3, #16384
	ldr	r2, [r3, #1980]
	ldr	r3, [fp, #-32]
	lsl	r3, r2, r3
	ldr	r2, [fp, #-48]
	add	r2, r2, #16384
	str	r3, [r2, #1980]
	ldr	r3, [fp, #-48]
	add	r3, r3, #16384
	ldr	r2, [r3, #1984]
	ldr	r3, [fp, #-32]
	sub	r3, r2, r3
	ldr	r2, [fp, #-48]
	add	r2, r2, #16384
	str	r3, [r2, #1984]
	ldr	r2, [fp, #-8]
	add	r3, r2, #1
	str	r3, [fp, #-8]
	movw	r3, #:lower16:stbi__jpeg_dezigzag
	movt	r3, #:upper16:stbi__jpeg_dezigzag
	ldrb	r3, [r3, r2]	@ zero_extendqisi2
	str	r3, [fp, #-36]
	ldr	r3, [fp, #-28]
	asr	r3, r3, #8
	uxth	r2, r3
	ldr	r3, [fp, #-36]
	lsl	r3, r3, #1
	ldr	r1, [fp, #12]
	add	r3, r1, r3
	ldrh	r3, [r3]
	smulbb	r3, r2, r3
	uxth	r1, r3
	ldr	r3, [fp, #-36]
	lsl	r3, r3, #1
	ldr	r2, [fp, #-52]
	add	r3, r2, r3
	sxth	r2, r1
	strh	r2, [r3]	@ movhi
	b	.L394
.L393:
	ldr	r1, [fp, #-60]
	ldr	r0, [fp, #-48]
	bl	stbi__jpeg_huff_decode
	str	r0, [fp, #-40]
	ldr	r3, [fp, #-40]
	cmp	r3, #0
	bge	.L395
	mov	r3, #0
	b	.L389
.L395:
	ldr	r3, [fp, #-40]
	and	r3, r3, #15
	str	r3, [fp, #-32]
	ldr	r3, [fp, #-40]
	asr	r3, r3, #4
	str	r3, [fp, #-28]
	ldr	r3, [fp, #-32]
	cmp	r3, #0
	bne	.L396
	ldr	r3, [fp, #-40]
	cmp	r3, #240
	bne	.L400
	ldr	r3, [fp, #-8]
	add	r3, r3, #16
	str	r3, [fp, #-8]
	b	.L394
.L396:
	ldr	r2, [fp, #-8]
	ldr	r3, [fp, #-28]
	add	r3, r2, r3
	str	r3, [fp, #-8]
	ldr	r2, [fp, #-8]
	add	r3, r2, #1
	str	r3, [fp, #-8]
	movw	r3, #:lower16:stbi__jpeg_dezigzag
	movt	r3, #:upper16:stbi__jpeg_dezigzag
	ldrb	r3, [r3, r2]	@ zero_extendqisi2
	str	r3, [fp, #-36]
	ldr	r1, [fp, #-32]
	ldr	r0, [fp, #-48]
	bl	stbi__extend_receive
	mov	r3, r0
	uxth	r2, r3
	ldr	r3, [fp, #-36]
	lsl	r3, r3, #1
	ldr	r1, [fp, #12]
	add	r3, r1, r3
	ldrh	r3, [r3]
	smulbb	r3, r2, r3
	uxth	r1, r3
	ldr	r3, [fp, #-36]
	lsl	r3, r3, #1
	ldr	r2, [fp, #-52]
	add	r3, r2, r3
	sxth	r2, r1
	strh	r2, [r3]	@ movhi
.L394:
	ldr	r3, [fp, #-8]
	cmp	r3, #63
	ble	.L399
	b	.L398
.L400:
	nop
.L398:
	mov	r3, #1
.L389:
	mov	r0, r3
	sub	sp, fp, #4
	@ sp needed
	pop	{fp, pc}
	.size	stbi__jpeg_decode_block, .-stbi__jpeg_decode_block
	.align	2
	.syntax unified
	.arm
	.fpu vfpv3-d16
	.type	stbi__jpeg_decode_block_prog_dc, %function
stbi__jpeg_decode_block_prog_dc:
	@ args = 0, pretend = 0, frame = 32
	@ frame_needed = 1, uses_anonymous_args = 0
	push	{fp, lr}
	add	fp, sp, #4
	sub	sp, sp, #32
	str	r0, [fp, #-24]
	str	r1, [fp, #-28]
	str	r2, [fp, #-32]
	str	r3, [fp, #-36]
	ldr	r3, [fp, #-24]
	add	r3, r3, #16384
	ldr	r3, [r3, #2004]
	cmp	r3, #0
	beq	.L402
	mov	r3, #0
	b	.L403
.L402:
	ldr	r3, [fp, #-24]
	add	r3, r3, #16384
	ldr	r3, [r3, #1984]
	cmp	r3, #15
	bgt	.L404
	ldr	r0, [fp, #-24]
	bl	stbi__grow_buffer_unsafe
.L404:
	ldr	r3, [fp, #-24]
	add	r3, r3, #16384
	ldr	r3, [r3, #2008]
	cmp	r3, #0
	bne	.L405
	mov	r2, #128
	mov	r1, #0
	ldr	r0, [fp, #-28]
	bl	memset
	ldr	r1, [fp, #-32]
	ldr	r0, [fp, #-24]
	bl	stbi__jpeg_huff_decode
	str	r0, [fp, #-8]
	ldr	r3, [fp, #-8]
	cmp	r3, #0
	beq	.L406
	ldr	r1, [fp, #-8]
	ldr	r0, [fp, #-24]
	bl	stbi__extend_receive
	mov	r3, r0
	b	.L407
.L406:
	mov	r3, #0
.L407:
	str	r3, [fp, #-12]
	ldr	r1, [fp, #-24]
	ldr	r2, [fp, #-36]
	mov	r3, r2
	lsl	r3, r3, #3
	add	r3, r3, r2
	lsl	r3, r3, #3
	add	r3, r1, r3
	add	r3, r3, #17920
	add	r3, r3, #180
	ldr	r3, [r3]
	ldr	r2, [fp, #-12]
	add	r3, r2, r3
	str	r3, [fp, #-16]
	ldr	r1, [fp, #-24]
	ldr	r2, [fp, #-36]
	mov	r3, r2
	lsl	r3, r3, #3
	add	r3, r3, r2
	lsl	r3, r3, #3
	add	r3, r1, r3
	add	r3, r3, #17920
	add	r3, r3, #180
	ldr	r2, [fp, #-16]
	str	r2, [r3]
	ldr	r3, [fp, #-24]
	add	r3, r3, #16384
	ldr	r3, [r3, #2012]
	ldr	r2, [fp, #-16]
	lsl	r3, r2, r3
	sxth	r2, r3
	ldr	r3, [fp, #-28]
	strh	r2, [r3]	@ movhi
	b	.L408
.L405:
	ldr	r0, [fp, #-24]
	bl	stbi__jpeg_get_bit
	mov	r3, r0
	cmp	r3, #0
	beq	.L408
	ldr	r3, [fp, #-28]
	ldrsh	r3, [r3]
	uxth	r2, r3
	ldr	r3, [fp, #-24]
	add	r3, r3, #16384
	ldr	r3, [r3, #2012]
	mov	r1, #1
	lsl	r3, r1, r3
	uxth	r3, r3
	add	r3, r2, r3
	uxth	r3, r3
	sxth	r2, r3
	ldr	r3, [fp, #-28]
	strh	r2, [r3]	@ movhi
.L408:
	mov	r3, #1
.L403:
	mov	r0, r3
	sub	sp, fp, #4
	@ sp needed
	pop	{fp, pc}
	.size	stbi__jpeg_decode_block_prog_dc, .-stbi__jpeg_decode_block_prog_dc
	.align	2
	.syntax unified
	.arm
	.fpu vfpv3-d16
	.type	stbi__jpeg_decode_block_prog_ac, %function
stbi__jpeg_decode_block_prog_ac:
	@ args = 0, pretend = 0, frame = 72
	@ frame_needed = 1, uses_anonymous_args = 0
	push	{fp, lr}
	add	fp, sp, #4
	sub	sp, sp, #72
	str	r0, [fp, #-64]
	str	r1, [fp, #-68]
	str	r2, [fp, #-72]
	str	r3, [fp, #-76]
	ldr	r3, [fp, #-64]
	add	r3, r3, #16384
	ldr	r3, [r3, #2000]
	cmp	r3, #0
	bne	.L410
	mov	r3, #0
	b	.L411
.L410:
	ldr	r3, [fp, #-64]
	add	r3, r3, #16384
	ldr	r3, [r3, #2008]
	cmp	r3, #0
	bne	.L412
	ldr	r3, [fp, #-64]
	add	r3, r3, #16384
	ldr	r3, [r3, #2012]
	str	r3, [fp, #-20]
	ldr	r3, [fp, #-64]
	add	r3, r3, #16384
	ldr	r3, [r3, #2016]
	cmp	r3, #0
	beq	.L413
	ldr	r3, [fp, #-64]
	add	r3, r3, #16384
	ldr	r3, [r3, #2016]
	sub	r3, r3, #1
	ldr	r2, [fp, #-64]
	add	r2, r2, #16384
	str	r3, [r2, #2016]
	mov	r3, #1
	b	.L411
.L413:
	ldr	r3, [fp, #-64]
	add	r3, r3, #16384
	ldr	r3, [r3, #2000]
	str	r3, [fp, #-8]
.L422:
	ldr	r3, [fp, #-64]
	add	r3, r3, #16384
	ldr	r3, [r3, #1984]
	cmp	r3, #15
	bgt	.L414
	ldr	r0, [fp, #-64]
	bl	stbi__grow_buffer_unsafe
.L414:
	ldr	r3, [fp, #-64]
	add	r3, r3, #16384
	ldr	r3, [r3, #1980]
	lsr	r3, r3, #23
	str	r3, [fp, #-24]
	ldr	r3, [fp, #-24]
	lsl	r3, r3, #1
	ldr	r2, [fp, #-76]
	add	r3, r2, r3
	ldrsh	r3, [r3]
	str	r3, [fp, #-28]
	ldr	r3, [fp, #-28]
	cmp	r3, #0
	beq	.L415
	ldr	r3, [fp, #-28]
	asr	r3, r3, #4
	and	r3, r3, #15
	ldr	r2, [fp, #-8]
	add	r3, r2, r3
	str	r3, [fp, #-8]
	ldr	r3, [fp, #-28]
	and	r3, r3, #15
	str	r3, [fp, #-32]
	ldr	r3, [fp, #-64]
	add	r3, r3, #16384
	ldr	r2, [r3, #1980]
	ldr	r3, [fp, #-32]
	lsl	r3, r2, r3
	ldr	r2, [fp, #-64]
	add	r2, r2, #16384
	str	r3, [r2, #1980]
	ldr	r3, [fp, #-64]
	add	r3, r3, #16384
	ldr	r2, [r3, #1984]
	ldr	r3, [fp, #-32]
	sub	r3, r2, r3
	ldr	r2, [fp, #-64]
	add	r2, r2, #16384
	str	r3, [r2, #1984]
	ldr	r2, [fp, #-8]
	add	r3, r2, #1
	str	r3, [fp, #-8]
	movw	r3, #:lower16:stbi__jpeg_dezigzag
	movt	r3, #:upper16:stbi__jpeg_dezigzag
	ldrb	r3, [r3, r2]	@ zero_extendqisi2
	str	r3, [fp, #-36]
	ldr	r3, [fp, #-28]
	asr	r2, r3, #8
	ldr	r3, [fp, #-20]
	lsl	r1, r2, r3
	ldr	r3, [fp, #-36]
	lsl	r3, r3, #1
	ldr	r2, [fp, #-68]
	add	r3, r2, r3
	sxth	r2, r1
	strh	r2, [r3]	@ movhi
	b	.L416
.L415:
	ldr	r1, [fp, #-72]
	ldr	r0, [fp, #-64]
	bl	stbi__jpeg_huff_decode
	str	r0, [fp, #-40]
	ldr	r3, [fp, #-40]
	cmp	r3, #0
	bge	.L417
	mov	r3, #0
	b	.L411
.L417:
	ldr	r3, [fp, #-40]
	and	r3, r3, #15
	str	r3, [fp, #-32]
	ldr	r3, [fp, #-40]
	asr	r3, r3, #4
	str	r3, [fp, #-28]
	ldr	r3, [fp, #-32]
	cmp	r3, #0
	bne	.L418
	ldr	r3, [fp, #-28]
	cmp	r3, #14
	bgt	.L419
	mov	r2, #1
	ldr	r3, [fp, #-28]
	lsl	r3, r2, r3
	ldr	r2, [fp, #-64]
	add	r2, r2, #16384
	str	r3, [r2, #2016]
	ldr	r3, [fp, #-28]
	cmp	r3, #0
	beq	.L420
	ldr	r1, [fp, #-28]
	ldr	r0, [fp, #-64]
	bl	stbi__jpeg_get_bits
	mov	r2, r0
	ldr	r3, [fp, #-64]
	add	r3, r3, #16384
	ldr	r3, [r3, #2016]
	add	r3, r2, r3
	ldr	r2, [fp, #-64]
	add	r2, r2, #16384
	str	r3, [r2, #2016]
.L420:
	ldr	r3, [fp, #-64]
	add	r3, r3, #16384
	ldr	r3, [r3, #2016]
	sub	r3, r3, #1
	ldr	r2, [fp, #-64]
	add	r2, r2, #16384
	str	r3, [r2, #2016]
	b	.L423
.L419:
	ldr	r3, [fp, #-8]
	add	r3, r3, #16
	str	r3, [fp, #-8]
	b	.L416
.L418:
	ldr	r2, [fp, #-8]
	ldr	r3, [fp, #-28]
	add	r3, r2, r3
	str	r3, [fp, #-8]
	ldr	r2, [fp, #-8]
	add	r3, r2, #1
	str	r3, [fp, #-8]
	movw	r3, #:lower16:stbi__jpeg_dezigzag
	movt	r3, #:upper16:stbi__jpeg_dezigzag
	ldrb	r3, [r3, r2]	@ zero_extendqisi2
	str	r3, [fp, #-36]
	ldr	r1, [fp, #-32]
	ldr	r0, [fp, #-64]
	bl	stbi__extend_receive
	mov	r2, r0
	ldr	r3, [fp, #-20]
	lsl	r1, r2, r3
	ldr	r3, [fp, #-36]
	lsl	r3, r3, #1
	ldr	r2, [fp, #-68]
	add	r3, r2, r3
	sxth	r2, r1
	strh	r2, [r3]	@ movhi
.L416:
	ldr	r3, [fp, #-64]
	add	r3, r3, #16384
	ldr	r3, [r3, #2004]
	ldr	r2, [fp, #-8]
	cmp	r2, r3
	ble	.L422
	b	.L423
.L412:
	ldr	r3, [fp, #-64]
	add	r3, r3, #16384
	ldr	r3, [r3, #2012]
	mov	r2, #1
	lsl	r3, r2, r3
	strh	r3, [fp, #-42]	@ movhi
	ldr	r3, [fp, #-64]
	add	r3, r3, #16384
	ldr	r3, [r3, #2016]
	cmp	r3, #0
	beq	.L424
	ldr	r3, [fp, #-64]
	add	r3, r3, #16384
	ldr	r3, [r3, #2016]
	sub	r3, r3, #1
	ldr	r2, [fp, #-64]
	add	r2, r2, #16384
	str	r3, [r2, #2016]
	ldr	r3, [fp, #-64]
	add	r3, r3, #16384
	ldr	r3, [r3, #2000]
	str	r3, [fp, #-8]
	b	.L425
.L428:
	movw	r3, #:lower16:stbi__jpeg_dezigzag
	movt	r3, #:upper16:stbi__jpeg_dezigzag
	ldr	r2, [fp, #-8]
	add	r3, r3, r2
	ldrb	r3, [r3]	@ zero_extendqisi2
	lsl	r3, r3, #1
	ldr	r2, [fp, #-68]
	add	r3, r2, r3
	str	r3, [fp, #-48]
	ldr	r3, [fp, #-48]
	ldrsh	r3, [r3]
	cmp	r3, #0
	beq	.L426
	ldr	r0, [fp, #-64]
	bl	stbi__jpeg_get_bit
	mov	r3, r0
	cmp	r3, #0
	beq	.L426
	ldr	r3, [fp, #-48]
	ldrsh	r2, [r3]
	ldrh	r3, [fp, #-42]	@ movhi
	and	r3, r3, r2
	sxth	r3, r3
	cmp	r3, #0
	bne	.L426
	ldr	r3, [fp, #-48]
	ldrsh	r3, [r3]
	cmp	r3, #0
	ble	.L427
	ldr	r3, [fp, #-48]
	ldrsh	r3, [r3]
	uxth	r2, r3
	ldrh	r3, [fp, #-42]
	add	r3, r2, r3
	uxth	r3, r3
	sxth	r2, r3
	ldr	r3, [fp, #-48]
	strh	r2, [r3]	@ movhi
	b	.L426
.L427:
	ldr	r3, [fp, #-48]
	ldrsh	r3, [r3]
	uxth	r2, r3
	ldrh	r3, [fp, #-42]
	sub	r3, r2, r3
	uxth	r3, r3
	sxth	r2, r3
	ldr	r3, [fp, #-48]
	strh	r2, [r3]	@ movhi
.L426:
	ldr	r3, [fp, #-8]
	add	r3, r3, #1
	str	r3, [fp, #-8]
.L425:
	ldr	r3, [fp, #-64]
	add	r3, r3, #16384
	ldr	r3, [r3, #2004]
	ldr	r2, [fp, #-8]
	cmp	r2, r3
	ble	.L428
	b	.L423
.L424:
	ldr	r3, [fp, #-64]
	add	r3, r3, #16384
	ldr	r3, [r3, #2000]
	str	r3, [fp, #-8]
.L442:
	ldr	r1, [fp, #-72]
	ldr	r0, [fp, #-64]
	bl	stbi__jpeg_huff_decode
	str	r0, [fp, #-52]
	ldr	r3, [fp, #-52]
	cmp	r3, #0
	bge	.L429
	mov	r3, #0
	b	.L411
.L429:
	ldr	r3, [fp, #-52]
	and	r3, r3, #15
	str	r3, [fp, #-16]
	ldr	r3, [fp, #-52]
	asr	r3, r3, #4
	str	r3, [fp, #-12]
	ldr	r3, [fp, #-16]
	cmp	r3, #0
	bne	.L430
	ldr	r3, [fp, #-12]
	cmp	r3, #14
	bgt	.L435
	mov	r2, #1
	ldr	r3, [fp, #-12]
	lsl	r3, r2, r3
	sub	r3, r3, #1
	ldr	r2, [fp, #-64]
	add	r2, r2, #16384
	str	r3, [r2, #2016]
	ldr	r3, [fp, #-12]
	cmp	r3, #0
	beq	.L432
	ldr	r1, [fp, #-12]
	ldr	r0, [fp, #-64]
	bl	stbi__jpeg_get_bits
	mov	r2, r0
	ldr	r3, [fp, #-64]
	add	r3, r3, #16384
	ldr	r3, [r3, #2016]
	add	r3, r2, r3
	ldr	r2, [fp, #-64]
	add	r2, r2, #16384
	str	r3, [r2, #2016]
.L432:
	mov	r3, #64
	str	r3, [fp, #-12]
	b	.L435
.L430:
	ldr	r3, [fp, #-16]
	cmp	r3, #1
	beq	.L433
	mov	r3, #0
	b	.L411
.L433:
	ldr	r0, [fp, #-64]
	bl	stbi__jpeg_get_bit
	mov	r3, r0
	cmp	r3, #0
	beq	.L434
	ldrsh	r3, [fp, #-42]
	str	r3, [fp, #-16]
	b	.L435
.L434:
	ldrsh	r3, [fp, #-42]
	rsb	r3, r3, #0
	str	r3, [fp, #-16]
	b	.L435
.L441:
	ldr	r2, [fp, #-8]
	add	r3, r2, #1
	str	r3, [fp, #-8]
	movw	r3, #:lower16:stbi__jpeg_dezigzag
	movt	r3, #:upper16:stbi__jpeg_dezigzag
	ldrb	r3, [r3, r2]	@ zero_extendqisi2
	lsl	r3, r3, #1
	ldr	r2, [fp, #-68]
	add	r3, r2, r3
	str	r3, [fp, #-56]
	ldr	r3, [fp, #-56]
	ldrsh	r3, [r3]
	cmp	r3, #0
	beq	.L436
	ldr	r0, [fp, #-64]
	bl	stbi__jpeg_get_bit
	mov	r3, r0
	cmp	r3, #0
	beq	.L435
	ldr	r3, [fp, #-56]
	ldrsh	r2, [r3]
	ldrh	r3, [fp, #-42]	@ movhi
	and	r3, r3, r2
	sxth	r3, r3
	cmp	r3, #0
	bne	.L435
	ldr	r3, [fp, #-56]
	ldrsh	r3, [r3]
	cmp	r3, #0
	ble	.L438
	ldr	r3, [fp, #-56]
	ldrsh	r3, [r3]
	uxth	r2, r3
	ldrh	r3, [fp, #-42]
	add	r3, r2, r3
	uxth	r3, r3
	sxth	r2, r3
	ldr	r3, [fp, #-56]
	strh	r2, [r3]	@ movhi
	b	.L435
.L438:
	ldr	r3, [fp, #-56]
	ldrsh	r3, [r3]
	uxth	r2, r3
	ldrh	r3, [fp, #-42]
	sub	r3, r2, r3
	uxth	r3, r3
	sxth	r2, r3
	ldr	r3, [fp, #-56]
	strh	r2, [r3]	@ movhi
	b	.L435
.L436:
	ldr	r3, [fp, #-12]
	cmp	r3, #0
	bne	.L439
	ldr	r3, [fp, #-16]
	sxth	r2, r3
	ldr	r3, [fp, #-56]
	strh	r2, [r3]	@ movhi
	b	.L440
.L439:
	ldr	r3, [fp, #-12]
	sub	r3, r3, #1
	str	r3, [fp, #-12]
.L435:
	ldr	r3, [fp, #-64]
	add	r3, r3, #16384
	ldr	r3, [r3, #2004]
	ldr	r2, [fp, #-8]
	cmp	r2, r3
	ble	.L441
.L440:
	ldr	r3, [fp, #-64]
	add	r3, r3, #16384
	ldr	r3, [r3, #2004]
	ldr	r2, [fp, #-8]
	cmp	r2, r3
	ble	.L442
.L423:
	mov	r3, #1
.L411:
	mov	r0, r3
	sub	sp, fp, #4
	@ sp needed
	pop	{fp, pc}
	.size	stbi__jpeg_decode_block_prog_ac, .-stbi__jpeg_decode_block_prog_ac
	.align	2
	.syntax unified
	.arm
	.fpu vfpv3-d16
	.type	stbi__clamp, %function
stbi__clamp:
	@ args = 0, pretend = 0, frame = 8
	@ frame_needed = 1, uses_anonymous_args = 0
	@ link register save eliminated.
	str	fp, [sp, #-4]!
	add	fp, sp, #0
	sub	sp, sp, #12
	str	r0, [fp, #-8]
	ldr	r3, [fp, #-8]
	cmp	r3, #255
	bls	.L444
	ldr	r3, [fp, #-8]
	cmp	r3, #0
	bge	.L445
	mov	r3, #0
	b	.L446
.L445:
	ldr	r3, [fp, #-8]
	cmp	r3, #255
	ble	.L444
	mov	r3, #255
	b	.L446
.L444:
	ldr	r3, [fp, #-8]
	uxtb	r3, r3
.L446:
	mov	r0, r3
	add	sp, fp, #0
	@ sp needed
	ldr	fp, [sp], #4
	bx	lr
	.size	stbi__clamp, .-stbi__clamp
	.align	2
	.syntax unified
	.arm
	.fpu vfpv3-d16
	.type	stbi__idct_block, %function
stbi__idct_block:
	@ args = 0, pretend = 0, frame = 400
	@ frame_needed = 1, uses_anonymous_args = 0
	push	{r4, fp, lr}
	add	fp, sp, #8
	sub	sp, sp, #404
	str	r0, [fp, #-400]
	str	r1, [fp, #-404]
	str	r2, [fp, #-408]
	sub	r3, fp, #392
	str	r3, [fp, #-20]
	ldr	r3, [fp, #-408]
	str	r3, [fp, #-28]
	mov	r3, #0
	str	r3, [fp, #-16]
	b	.L448
.L451:
	ldr	r3, [fp, #-28]
	add	r3, r3, #16
	ldrsh	r3, [r3]
	cmp	r3, #0
	bne	.L449
	ldr	r3, [fp, #-28]
	add	r3, r3, #32
	ldrsh	r3, [r3]
	cmp	r3, #0
	bne	.L449
	ldr	r3, [fp, #-28]
	add	r3, r3, #48
	ldrsh	r3, [r3]
	cmp	r3, #0
	bne	.L449
	ldr	r3, [fp, #-28]
	add	r3, r3, #64
	ldrsh	r3, [r3]
	cmp	r3, #0
	bne	.L449
	ldr	r3, [fp, #-28]
	add	r3, r3, #80
	ldrsh	r3, [r3]
	cmp	r3, #0
	bne	.L449
	ldr	r3, [fp, #-28]
	add	r3, r3, #96
	ldrsh	r3, [r3]
	cmp	r3, #0
	bne	.L449
	ldr	r3, [fp, #-28]
	add	r3, r3, #112
	ldrsh	r3, [r3]
	cmp	r3, #0
	bne	.L449
	ldr	r3, [fp, #-28]
	ldrsh	r3, [r3]
	lsl	r3, r3, #2
	str	r3, [fp, #-32]
	ldr	r3, [fp, #-20]
	add	r3, r3, #224
	ldr	r2, [fp, #-32]
	str	r2, [r3]
	ldr	r2, [fp, #-20]
	add	r2, r2, #192
	ldr	r3, [r3]
	str	r3, [r2]
	ldr	r3, [fp, #-20]
	add	r3, r3, #160
	ldr	r2, [r2]
	str	r2, [r3]
	ldr	r2, [fp, #-20]
	add	r2, r2, #128
	ldr	r3, [r3]
	str	r3, [r2]
	ldr	r3, [fp, #-20]
	add	r3, r3, #96
	ldr	r2, [r2]
	str	r2, [r3]
	ldr	r2, [fp, #-20]
	add	r2, r2, #64
	ldr	r3, [r3]
	str	r3, [r2]
	ldr	r3, [fp, #-20]
	add	r3, r3, #32
	ldr	r2, [r2]
	str	r2, [r3]
	ldr	r2, [r3]
	ldr	r3, [fp, #-20]
	str	r2, [r3]
	b	.L450
.L449:
	ldr	r3, [fp, #-28]
	add	r3, r3, #32
	ldrsh	r3, [r3]
	str	r3, [fp, #-36]
	ldr	r3, [fp, #-28]
	add	r3, r3, #96
	ldrsh	r3, [r3]
	str	r3, [fp, #-40]
	ldr	r2, [fp, #-36]
	ldr	r3, [fp, #-40]
	add	r3, r2, r3
	movw	r2, #2217
	mul	r3, r2, r3
	str	r3, [fp, #-44]
	ldr	r2, [fp, #-40]
	movw	r3, #57969
	movt	r3, 65535
	mul	r3, r3, r2
	ldr	r2, [fp, #-44]
	add	r3, r2, r3
	str	r3, [fp, #-48]
	ldr	r2, [fp, #-36]
	mov	r3, r2
	lsl	r3, r3, #1
	add	r3, r3, r2
	lsl	r3, r3, #5
	sub	r3, r3, r2
	lsl	r2, r3, #5
	add	r3, r3, r2
	ldr	r2, [fp, #-44]
	add	r3, r2, r3
	str	r3, [fp, #-52]
	ldr	r3, [fp, #-28]
	ldrsh	r3, [r3]
	str	r3, [fp, #-36]
	ldr	r3, [fp, #-28]
	add	r3, r3, #64
	ldrsh	r3, [r3]
	str	r3, [fp, #-40]
	ldr	r2, [fp, #-36]
	ldr	r3, [fp, #-40]
	add	r3, r2, r3
	lsl	r3, r3, #12
	str	r3, [fp, #-56]
	ldr	r2, [fp, #-36]
	ldr	r3, [fp, #-40]
	sub	r3, r2, r3
	lsl	r3, r3, #12
	str	r3, [fp, #-60]
	ldr	r2, [fp, #-56]
	ldr	r3, [fp, #-52]
	add	r3, r2, r3
	str	r3, [fp, #-64]
	ldr	r2, [fp, #-56]
	ldr	r3, [fp, #-52]
	sub	r3, r2, r3
	str	r3, [fp, #-68]
	ldr	r2, [fp, #-60]
	ldr	r3, [fp, #-48]
	add	r3, r2, r3
	str	r3, [fp, #-72]
	ldr	r2, [fp, #-60]
	ldr	r3, [fp, #-48]
	sub	r3, r2, r3
	str	r3, [fp, #-76]
	ldr	r3, [fp, #-28]
	add	r3, r3, #112
	ldrsh	r3, [r3]
	str	r3, [fp, #-56]
	ldr	r3, [fp, #-28]
	add	r3, r3, #80
	ldrsh	r3, [r3]
	str	r3, [fp, #-60]
	ldr	r3, [fp, #-28]
	add	r3, r3, #48
	ldrsh	r3, [r3]
	str	r3, [fp, #-48]
	ldr	r3, [fp, #-28]
	add	r3, r3, #16
	ldrsh	r3, [r3]
	str	r3, [fp, #-52]
	ldr	r2, [fp, #-56]
	ldr	r3, [fp, #-48]
	add	r3, r2, r3
	str	r3, [fp, #-40]
	ldr	r2, [fp, #-60]
	ldr	r3, [fp, #-52]
	add	r3, r2, r3
	str	r3, [fp, #-80]
	ldr	r2, [fp, #-56]
	ldr	r3, [fp, #-52]
	add	r3, r2, r3
	str	r3, [fp, #-44]
	ldr	r2, [fp, #-60]
	ldr	r3, [fp, #-48]
	add	r3, r2, r3
	str	r3, [fp, #-36]
	ldr	r2, [fp, #-40]
	ldr	r3, [fp, #-80]
	add	r3, r2, r3
	movw	r2, #4816
	mul	r3, r2, r3
	str	r3, [fp, #-84]
	ldr	r2, [fp, #-56]
	mov	r3, r2
	lsl	r3, r3, #3
	add	r3, r3, r2
	lsl	r1, r3, #4
	add	r3, r3, r1
	lsl	r3, r3, #3
	sub	r3, r3, r2
	str	r3, [fp, #-56]
	ldr	r3, [fp, #-60]
	movw	r2, #8410
	mul	r3, r2, r3
	str	r3, [fp, #-60]
	ldr	r3, [fp, #-48]
	movw	r2, #12586
	mul	r3, r2, r3
	str	r3, [fp, #-48]
	ldr	r2, [fp, #-52]
	mov	r3, r2
	lsl	r3, r3, #1
	add	r3, r3, r2
	lsl	r3, r3, #9
	add	r3, r3, r2
	lsl	r3, r3, #2
	add	r3, r3, r2
	str	r3, [fp, #-52]
	ldr	r2, [fp, #-44]
	movw	r3, #61851
	movt	r3, 65535
	mul	r3, r3, r2
	ldr	r2, [fp, #-84]
	add	r3, r2, r3
	str	r3, [fp, #-44]
	ldr	r3, [fp, #-36]
	mvn	r2, #10496
	mul	r3, r2, r3
	ldr	r2, [fp, #-84]
	add	r3, r2, r3
	str	r3, [fp, #-36]
	ldr	r2, [fp, #-40]
	movw	r3, #57502
	movt	r3, 65535
	mul	r3, r3, r2
	str	r3, [fp, #-40]
	ldr	r2, [fp, #-80]
	movw	r3, #63939
	movt	r3, 65535
	mul	r3, r3, r2
	str	r3, [fp, #-80]
	ldr	r2, [fp, #-44]
	ldr	r3, [fp, #-80]
	add	r3, r2, r3
	ldr	r2, [fp, #-52]
	add	r3, r2, r3
	str	r3, [fp, #-52]
	ldr	r2, [fp, #-36]
	ldr	r3, [fp, #-40]
	add	r3, r2, r3
	ldr	r2, [fp, #-48]
	add	r3, r2, r3
	str	r3, [fp, #-48]
	ldr	r2, [fp, #-36]
	ldr	r3, [fp, #-80]
	add	r3, r2, r3
	ldr	r2, [fp, #-60]
	add	r3, r2, r3
	str	r3, [fp, #-60]
	ldr	r2, [fp, #-44]
	ldr	r3, [fp, #-40]
	add	r3, r2, r3
	ldr	r2, [fp, #-56]
	add	r3, r2, r3
	str	r3, [fp, #-56]
	ldr	r3, [fp, #-64]
	add	r3, r3, #512
	str	r3, [fp, #-64]
	ldr	r3, [fp, #-72]
	add	r3, r3, #512
	str	r3, [fp, #-72]
	ldr	r3, [fp, #-76]
	add	r3, r3, #512
	str	r3, [fp, #-76]
	ldr	r3, [fp, #-68]
	add	r3, r3, #512
	str	r3, [fp, #-68]
	ldr	r2, [fp, #-64]
	ldr	r3, [fp, #-52]
	add	r3, r2, r3
	asr	r2, r3, #10
	ldr	r3, [fp, #-20]
	str	r2, [r3]
	ldr	r2, [fp, #-64]
	ldr	r3, [fp, #-52]
	sub	r2, r2, r3
	ldr	r3, [fp, #-20]
	add	r3, r3, #224
	asr	r2, r2, #10
	str	r2, [r3]
	ldr	r2, [fp, #-72]
	ldr	r3, [fp, #-48]
	add	r2, r2, r3
	ldr	r3, [fp, #-20]
	add	r3, r3, #32
	asr	r2, r2, #10
	str	r2, [r3]
	ldr	r2, [fp, #-72]
	ldr	r3, [fp, #-48]
	sub	r2, r2, r3
	ldr	r3, [fp, #-20]
	add	r3, r3, #192
	asr	r2, r2, #10
	str	r2, [r3]
	ldr	r2, [fp, #-76]
	ldr	r3, [fp, #-60]
	add	r2, r2, r3
	ldr	r3, [fp, #-20]
	add	r3, r3, #64
	asr	r2, r2, #10
	str	r2, [r3]
	ldr	r2, [fp, #-76]
	ldr	r3, [fp, #-60]
	sub	r2, r2, r3
	ldr	r3, [fp, #-20]
	add	r3, r3, #160
	asr	r2, r2, #10
	str	r2, [r3]
	ldr	r2, [fp, #-68]
	ldr	r3, [fp, #-56]
	add	r2, r2, r3
	ldr	r3, [fp, #-20]
	add	r3, r3, #96
	asr	r2, r2, #10
	str	r2, [r3]
	ldr	r2, [fp, #-68]
	ldr	r3, [fp, #-56]
	sub	r2, r2, r3
	ldr	r3, [fp, #-20]
	add	r3, r3, #128
	asr	r2, r2, #10
	str	r2, [r3]
.L450:
	ldr	r3, [fp, #-16]
	add	r3, r3, #1
	str	r3, [fp, #-16]
	ldr	r3, [fp, #-28]
	add	r3, r3, #2
	str	r3, [fp, #-28]
	ldr	r3, [fp, #-20]
	add	r3, r3, #4
	str	r3, [fp, #-20]
.L448:
	ldr	r3, [fp, #-16]
	cmp	r3, #7
	ble	.L451
	mov	r3, #0
	str	r3, [fp, #-16]
	sub	r3, fp, #392
	str	r3, [fp, #-20]
	ldr	r3, [fp, #-400]
	str	r3, [fp, #-24]
	b	.L452
.L453:
	ldr	r3, [fp, #-20]
	ldr	r3, [r3, #8]
	str	r3, [fp, #-88]
	ldr	r3, [fp, #-20]
	ldr	r3, [r3, #24]
	str	r3, [fp, #-92]
	ldr	r2, [fp, #-88]
	ldr	r3, [fp, #-92]
	add	r3, r2, r3
	movw	r2, #2217
	mul	r3, r2, r3
	str	r3, [fp, #-96]
	ldr	r2, [fp, #-92]
	movw	r3, #57969
	movt	r3, 65535
	mul	r3, r3, r2
	ldr	r2, [fp, #-96]
	add	r3, r2, r3
	str	r3, [fp, #-100]
	ldr	r2, [fp, #-88]
	mov	r3, r2
	lsl	r3, r3, #1
	add	r3, r3, r2
	lsl	r3, r3, #5
	sub	r3, r3, r2
	lsl	r2, r3, #5
	add	r3, r3, r2
	ldr	r2, [fp, #-96]
	add	r3, r2, r3
	str	r3, [fp, #-104]
	ldr	r3, [fp, #-20]
	ldr	r3, [r3]
	str	r3, [fp, #-88]
	ldr	r3, [fp, #-20]
	ldr	r3, [r3, #16]
	str	r3, [fp, #-92]
	ldr	r2, [fp, #-88]
	ldr	r3, [fp, #-92]
	add	r3, r2, r3
	lsl	r3, r3, #12
	str	r3, [fp, #-108]
	ldr	r2, [fp, #-88]
	ldr	r3, [fp, #-92]
	sub	r3, r2, r3
	lsl	r3, r3, #12
	str	r3, [fp, #-112]
	ldr	r2, [fp, #-108]
	ldr	r3, [fp, #-104]
	add	r3, r2, r3
	str	r3, [fp, #-116]
	ldr	r2, [fp, #-108]
	ldr	r3, [fp, #-104]
	sub	r3, r2, r3
	str	r3, [fp, #-120]
	ldr	r2, [fp, #-112]
	ldr	r3, [fp, #-100]
	add	r3, r2, r3
	str	r3, [fp, #-124]
	ldr	r2, [fp, #-112]
	ldr	r3, [fp, #-100]
	sub	r3, r2, r3
	str	r3, [fp, #-128]
	ldr	r3, [fp, #-20]
	ldr	r3, [r3, #28]
	str	r3, [fp, #-108]
	ldr	r3, [fp, #-20]
	ldr	r3, [r3, #20]
	str	r3, [fp, #-112]
	ldr	r3, [fp, #-20]
	ldr	r3, [r3, #12]
	str	r3, [fp, #-100]
	ldr	r3, [fp, #-20]
	ldr	r3, [r3, #4]
	str	r3, [fp, #-104]
	ldr	r2, [fp, #-108]
	ldr	r3, [fp, #-100]
	add	r3, r2, r3
	str	r3, [fp, #-92]
	ldr	r2, [fp, #-112]
	ldr	r3, [fp, #-104]
	add	r3, r2, r3
	str	r3, [fp, #-132]
	ldr	r2, [fp, #-108]
	ldr	r3, [fp, #-104]
	add	r3, r2, r3
	str	r3, [fp, #-96]
	ldr	r2, [fp, #-112]
	ldr	r3, [fp, #-100]
	add	r3, r2, r3
	str	r3, [fp, #-88]
	ldr	r2, [fp, #-92]
	ldr	r3, [fp, #-132]
	add	r3, r2, r3
	movw	r2, #4816
	mul	r3, r2, r3
	str	r3, [fp, #-136]
	ldr	r2, [fp, #-108]
	mov	r3, r2
	lsl	r3, r3, #3
	add	r3, r3, r2
	lsl	r1, r3, #4
	add	r3, r3, r1
	lsl	r3, r3, #3
	sub	r3, r3, r2
	str	r3, [fp, #-108]
	ldr	r3, [fp, #-112]
	movw	r2, #8410
	mul	r3, r2, r3
	str	r3, [fp, #-112]
	ldr	r3, [fp, #-100]
	movw	r2, #12586
	mul	r3, r2, r3
	str	r3, [fp, #-100]
	ldr	r2, [fp, #-104]
	mov	r3, r2
	lsl	r3, r3, #1
	add	r3, r3, r2
	lsl	r3, r3, #9
	add	r3, r3, r2
	lsl	r3, r3, #2
	add	r3, r3, r2
	str	r3, [fp, #-104]
	ldr	r2, [fp, #-96]
	movw	r3, #61851
	movt	r3, 65535
	mul	r3, r3, r2
	ldr	r2, [fp, #-136]
	add	r3, r2, r3
	str	r3, [fp, #-96]
	ldr	r3, [fp, #-88]
	mvn	r2, #10496
	mul	r3, r2, r3
	ldr	r2, [fp, #-136]
	add	r3, r2, r3
	str	r3, [fp, #-88]
	ldr	r2, [fp, #-92]
	movw	r3, #57502
	movt	r3, 65535
	mul	r3, r3, r2
	str	r3, [fp, #-92]
	ldr	r2, [fp, #-132]
	movw	r3, #63939
	movt	r3, 65535
	mul	r3, r3, r2
	str	r3, [fp, #-132]
	ldr	r2, [fp, #-96]
	ldr	r3, [fp, #-132]
	add	r3, r2, r3
	ldr	r2, [fp, #-104]
	add	r3, r2, r3
	str	r3, [fp, #-104]
	ldr	r2, [fp, #-88]
	ldr	r3, [fp, #-92]
	add	r3, r2, r3
	ldr	r2, [fp, #-100]
	add	r3, r2, r3
	str	r3, [fp, #-100]
	ldr	r2, [fp, #-88]
	ldr	r3, [fp, #-132]
	add	r3, r2, r3
	ldr	r2, [fp, #-112]
	add	r3, r2, r3
	str	r3, [fp, #-112]
	ldr	r2, [fp, #-96]
	ldr	r3, [fp, #-92]
	add	r3, r2, r3
	ldr	r2, [fp, #-108]
	add	r3, r2, r3
	str	r3, [fp, #-108]
	ldr	r3, [fp, #-116]
	add	r3, r3, #16777216
	add	r3, r3, #65536
	str	r3, [fp, #-116]
	ldr	r3, [fp, #-124]
	add	r3, r3, #16777216
	add	r3, r3, #65536
	str	r3, [fp, #-124]
	ldr	r3, [fp, #-128]
	add	r3, r3, #16777216
	add	r3, r3, #65536
	str	r3, [fp, #-128]
	ldr	r3, [fp, #-120]
	add	r3, r3, #16777216
	add	r3, r3, #65536
	str	r3, [fp, #-120]
	ldr	r2, [fp, #-116]
	ldr	r3, [fp, #-104]
	add	r3, r2, r3
	asr	r3, r3, #17
	mov	r0, r3
	bl	stbi__clamp
	mov	r3, r0
	mov	r2, r3
	ldr	r3, [fp, #-24]
	strb	r2, [r3]
	ldr	r2, [fp, #-116]
	ldr	r3, [fp, #-104]
	sub	r3, r2, r3
	asr	r2, r3, #17
	ldr	r3, [fp, #-24]
	add	r4, r3, #7
	mov	r0, r2
	bl	stbi__clamp
	mov	r3, r0
	strb	r3, [r4]
	ldr	r2, [fp, #-124]
	ldr	r3, [fp, #-100]
	add	r3, r2, r3
	asr	r2, r3, #17
	ldr	r3, [fp, #-24]
	add	r4, r3, #1
	mov	r0, r2
	bl	stbi__clamp
	mov	r3, r0
	strb	r3, [r4]
	ldr	r2, [fp, #-124]
	ldr	r3, [fp, #-100]
	sub	r3, r2, r3
	asr	r2, r3, #17
	ldr	r3, [fp, #-24]
	add	r4, r3, #6
	mov	r0, r2
	bl	stbi__clamp
	mov	r3, r0
	strb	r3, [r4]
	ldr	r2, [fp, #-128]
	ldr	r3, [fp, #-112]
	add	r3, r2, r3
	asr	r2, r3, #17
	ldr	r3, [fp, #-24]
	add	r4, r3, #2
	mov	r0, r2
	bl	stbi__clamp
	mov	r3, r0
	strb	r3, [r4]
	ldr	r2, [fp, #-128]
	ldr	r3, [fp, #-112]
	sub	r3, r2, r3
	asr	r2, r3, #17
	ldr	r3, [fp, #-24]
	add	r4, r3, #5
	mov	r0, r2
	bl	stbi__clamp
	mov	r3, r0
	strb	r3, [r4]
	ldr	r2, [fp, #-120]
	ldr	r3, [fp, #-108]
	add	r3, r2, r3
	asr	r2, r3, #17
	ldr	r3, [fp, #-24]
	add	r4, r3, #3
	mov	r0, r2
	bl	stbi__clamp
	mov	r3, r0
	strb	r3, [r4]
	ldr	r2, [fp, #-120]
	ldr	r3, [fp, #-108]
	sub	r3, r2, r3
	asr	r2, r3, #17
	ldr	r3, [fp, #-24]
	add	r4, r3, #4
	mov	r0, r2
	bl	stbi__clamp
	mov	r3, r0
	strb	r3, [r4]
	ldr	r3, [fp, #-16]
	add	r3, r3, #1
	str	r3, [fp, #-16]
	ldr	r3, [fp, #-20]
	add	r3, r3, #32
	str	r3, [fp, #-20]
	ldr	r3, [fp, #-404]
	ldr	r2, [fp, #-24]
	add	r3, r2, r3
	str	r3, [fp, #-24]
.L452:
	ldr	r3, [fp, #-16]
	cmp	r3, #7
	ble	.L453
	nop
	sub	sp, fp, #8
	@ sp needed
	pop	{r4, fp, pc}
	.size	stbi__idct_block, .-stbi__idct_block
	.align	2
	.syntax unified
	.arm
	.fpu vfpv3-d16
	.type	stbi__get_marker, %function
stbi__get_marker:
	@ args = 0, pretend = 0, frame = 16
	@ frame_needed = 1, uses_anonymous_args = 0
	push	{fp, lr}
	add	fp, sp, #4
	sub	sp, sp, #16
	str	r0, [fp, #-16]
	ldr	r3, [fp, #-16]
	add	r3, r3, #16384
	ldrb	r3, [r3, #1988]	@ zero_extendqisi2
	cmp	r3, #255
	beq	.L455
	ldr	r3, [fp, #-16]
	add	r3, r3, #16384
	ldrb	r3, [r3, #1988]
	strb	r3, [fp, #-5]
	ldr	r3, [fp, #-16]
	add	r3, r3, #16384
	mvn	r2, #0
	strb	r2, [r3, #1988]
	ldrb	r3, [fp, #-5]	@ zero_extendqisi2
	b	.L456
.L455:
	ldr	r3, [fp, #-16]
	ldr	r3, [r3]
	mov	r0, r3
	bl	stbi__get8
	mov	r3, r0
	strb	r3, [fp, #-5]
	ldrb	r3, [fp, #-5]	@ zero_extendqisi2
	cmp	r3, #255
	beq	.L458
	mov	r3, #255
	b	.L456
.L459:
	ldr	r3, [fp, #-16]
	ldr	r3, [r3]
	mov	r0, r3
	bl	stbi__get8
	mov	r3, r0
	strb	r3, [fp, #-5]
.L458:
	ldrb	r3, [fp, #-5]	@ zero_extendqisi2
	cmp	r3, #255
	beq	.L459
	ldrb	r3, [fp, #-5]	@ zero_extendqisi2
.L456:
	mov	r0, r3
	sub	sp, fp, #4
	@ sp needed
	pop	{fp, pc}
	.size	stbi__get_marker, .-stbi__get_marker
	.align	2
	.syntax unified
	.arm
	.fpu vfpv3-d16
	.type	stbi__jpeg_reset, %function
stbi__jpeg_reset:
	@ args = 0, pretend = 0, frame = 8
	@ frame_needed = 1, uses_anonymous_args = 0
	@ link register save eliminated.
	str	fp, [sp, #-4]!
	add	fp, sp, #0
	sub	sp, sp, #12
	str	r0, [fp, #-8]
	ldr	r3, [fp, #-8]
	add	r3, r3, #16384
	mov	r2, r3
	mov	r3, #0
	str	r3, [r2, #1984]
	ldr	r3, [fp, #-8]
	add	r3, r3, #16384
	mov	r2, r3
	mov	r3, #0
	str	r3, [r2, #1980]
	ldr	r3, [fp, #-8]
	add	r3, r3, #16384
	mov	r2, r3
	mov	r3, #0
	str	r3, [r2, #1992]
	ldr	r3, [fp, #-8]
	add	r3, r3, #16384
	mov	r2, r3
	mov	r3, #0
	str	r3, [r2, #1932]
	ldr	r3, [fp, #-8]
	add	r3, r3, #16384
	ldr	r3, [r3, #1932]
	ldr	r2, [fp, #-8]
	add	r2, r2, #16384
	str	r3, [r2, #1860]
	ldr	r3, [fp, #-8]
	add	r3, r3, #16384
	ldr	r3, [r3, #1860]
	ldr	r2, [fp, #-8]
	add	r2, r2, #16384
	str	r3, [r2, #1788]
	ldr	r3, [fp, #-8]
	add	r3, r3, #16384
	ldr	r3, [r3, #1788]
	ldr	r2, [fp, #-8]
	add	r2, r2, #16384
	str	r3, [r2, #1716]
	ldr	r3, [fp, #-8]
	add	r3, r3, #16384
	mvn	r2, #0
	strb	r2, [r3, #1988]
	ldr	r3, [fp, #-8]
	add	r3, r3, #16384
	ldr	r3, [r3, #2052]
	cmp	r3, #0
	beq	.L461
	ldr	r3, [fp, #-8]
	add	r3, r3, #16384
	ldr	r3, [r3, #2052]
	b	.L462
.L461:
	mvn	r3, #-2147483648
.L462:
	ldr	r2, [fp, #-8]
	add	r2, r2, #16384
	str	r3, [r2, #2056]
	ldr	r3, [fp, #-8]
	add	r3, r3, #16384
	mov	r2, r3
	mov	r3, #0
	str	r3, [r2, #2016]
	nop
	add	sp, fp, #0
	@ sp needed
	ldr	fp, [sp], #4
	bx	lr
	.size	stbi__jpeg_reset, .-stbi__jpeg_reset
	.align	2
	.syntax unified
	.arm
	.fpu vfpv3-d16
	.type	stbi__parse_entropy_coded_data, %function
stbi__parse_entropy_coded_data:
	@ args = 0, pretend = 0, frame = 264
	@ frame_needed = 1, uses_anonymous_args = 0
	push	{r4, fp, lr}
	add	fp, sp, #8
	sub	sp, sp, #284
	str	r0, [fp, #-272]
	ldr	r0, [fp, #-272]
	bl	stbi__jpeg_reset
	ldr	r3, [fp, #-272]
	add	r3, r3, #16384
	ldr	r3, [r3, #1996]
	cmp	r3, #0
	bne	.L464
	ldr	r3, [fp, #-272]
	add	r3, r3, #16384
	ldr	r3, [r3, #2032]
	cmp	r3, #1
	bne	.L465
	ldr	r3, [fp, #-272]
	add	r3, r3, #16384
	ldr	r3, [r3, #2036]
	str	r3, [fp, #-72]
	ldr	r1, [fp, #-272]
	ldr	r2, [fp, #-72]
	mov	r3, r2
	lsl	r3, r3, #3
	add	r3, r3, r2
	lsl	r3, r3, #3
	add	r3, r1, r3
	add	r3, r3, #17920
	add	r3, r3, #184
	ldr	r3, [r3]
	add	r3, r3, #7
	asr	r3, r3, #3
	str	r3, [fp, #-76]
	ldr	r1, [fp, #-272]
	ldr	r2, [fp, #-72]
	mov	r3, r2
	lsl	r3, r3, #3
	add	r3, r3, r2
	lsl	r3, r3, #3
	add	r3, r1, r3
	add	r3, r3, #17920
	add	r3, r3, #188
	ldr	r3, [r3]
	add	r3, r3, #7
	asr	r3, r3, #3
	str	r3, [fp, #-80]
	mov	r3, #0
	str	r3, [fp, #-20]
	b	.L466
.L475:
	mov	r3, #0
	str	r3, [fp, #-16]
	b	.L467
.L474:
	ldr	r1, [fp, #-272]
	ldr	r2, [fp, #-72]
	mov	r3, r2
	lsl	r3, r3, #3
	add	r3, r3, r2
	lsl	r3, r3, #3
	add	r3, r1, r3
	add	r3, r3, #17920
	add	r3, r3, #176
	ldr	r3, [r3]
	str	r3, [fp, #-84]
	ldr	r3, [fp, #-272]
	add	r1, r3, #4
	ldr	r0, [fp, #-272]
	ldr	r2, [fp, #-72]
	mov	r3, r2
	lsl	r3, r3, #3
	add	r3, r3, r2
	lsl	r3, r3, #3
	add	r3, r0, r3
	add	r3, r3, #17920
	add	r3, r3, #172
	ldr	r3, [r3]
	mov	r2, r3
	mov	r3, r2
	lsl	r3, r3, #3
	sub	r3, r3, r2
	lsl	r2, r3, #4
	sub	r2, r2, r3
	lsl	r3, r2, #4
	mov	r2, r3
	mov	r3, r2
	add	ip, r1, r3
	ldr	r3, [fp, #-272]
	add	r1, r3, #6720
	add	r1, r1, #4
	ldr	r2, [fp, #-84]
	mov	r3, r2
	lsl	r3, r3, #3
	sub	r3, r3, r2
	lsl	r2, r3, #4
	sub	r2, r2, r3
	lsl	r3, r2, #4
	mov	r2, r3
	mov	r3, r2
	add	lr, r1, r3
	ldr	r3, [fp, #-84]
	lsl	r3, r3, #10
	add	r3, r3, #13952
	ldr	r2, [fp, #-272]
	add	r3, r2, r3
	add	r1, r3, #4
	ldr	r0, [fp, #-272]
	ldr	r2, [fp, #-72]
	mov	r3, r2
	lsl	r3, r3, #3
	add	r3, r3, r2
	lsl	r3, r3, #3
	add	r3, r0, r3
	add	r3, r3, #17920
	add	r3, r3, #168
	ldr	r3, [r3]
	add	r3, r3, #105
	lsl	r3, r3, #7
	ldr	r2, [fp, #-272]
	add	r3, r2, r3
	add	r3, r3, #4
	sub	r0, fp, #264
	str	r3, [sp, #8]
	ldr	r3, [fp, #-72]
	str	r3, [sp, #4]
	str	r1, [sp]
	mov	r3, lr
	mov	r2, ip
	mov	r1, r0
	ldr	r0, [fp, #-272]
	bl	stbi__jpeg_decode_block
	mov	r3, r0
	cmp	r3, #0
	bne	.L468
	mov	r3, #0
	b	.L476
.L468:
	ldr	r3, [fp, #-272]
	add	r3, r3, #16384
	ldr	r4, [r3, #2060]
	ldr	r1, [fp, #-272]
	ldr	r2, [fp, #-72]
	mov	r3, r2
	lsl	r3, r3, #3
	add	r3, r3, r2
	lsl	r3, r3, #3
	add	r3, r1, r3
	add	r3, r3, #17920
	add	r3, r3, #200
	ldr	r1, [r3]
	ldr	r0, [fp, #-272]
	ldr	r2, [fp, #-72]
	mov	r3, r2
	lsl	r3, r3, #3
	add	r3, r3, r2
	lsl	r3, r3, #3
	add	r3, r0, r3
	add	r3, r3, #17920
	add	r3, r3, #192
	ldr	r3, [r3]
	ldr	r2, [fp, #-20]
	mul	r3, r2, r3
	lsl	r3, r3, #3
	mov	r2, r3
	ldr	r3, [fp, #-16]
	lsl	r3, r3, #3
	add	r3, r2, r3
	add	r0, r1, r3
	ldr	r1, [fp, #-272]
	ldr	r2, [fp, #-72]
	mov	r3, r2
	lsl	r3, r3, #3
	add	r3, r3, r2
	lsl	r3, r3, #3
	add	r3, r1, r3
	add	r3, r3, #17920
	add	r3, r3, #192
	ldr	r3, [r3]
	sub	r2, fp, #264
	mov	r1, r3
	blx	r4
	ldr	r3, [fp, #-272]
	add	r3, r3, #16384
	ldr	r3, [r3, #2056]
	sub	r3, r3, #1
	ldr	r2, [fp, #-272]
	add	r2, r2, #16384
	str	r3, [r2, #2056]
	ldr	r3, [fp, #-272]
	add	r3, r3, #16384
	ldr	r3, [r3, #2056]
	cmp	r3, #0
	bgt	.L470
	ldr	r3, [fp, #-272]
	add	r3, r3, #16384
	ldr	r3, [r3, #1984]
	cmp	r3, #23
	bgt	.L471
	ldr	r0, [fp, #-272]
	bl	stbi__grow_buffer_unsafe
.L471:
	ldr	r3, [fp, #-272]
	add	r3, r3, #16384
	ldrb	r3, [r3, #1988]	@ zero_extendqisi2
	cmp	r3, #207
	bls	.L472
	ldr	r3, [fp, #-272]
	add	r3, r3, #16384
	ldrb	r3, [r3, #1988]	@ zero_extendqisi2
	cmp	r3, #215
	bls	.L473
.L472:
	mov	r3, #1
	b	.L476
.L473:
	ldr	r0, [fp, #-272]
	bl	stbi__jpeg_reset
.L470:
	ldr	r3, [fp, #-16]
	add	r3, r3, #1
	str	r3, [fp, #-16]
.L467:
	ldr	r2, [fp, #-16]
	ldr	r3, [fp, #-76]
	cmp	r2, r3
	blt	.L474
	ldr	r3, [fp, #-20]
	add	r3, r3, #1
	str	r3, [fp, #-20]
.L466:
	ldr	r2, [fp, #-20]
	ldr	r3, [fp, #-80]
	cmp	r2, r3
	blt	.L475
	mov	r3, #1
	b	.L476
.L465:
	mov	r3, #0
	str	r3, [fp, #-28]
	b	.L477
.L492:
	mov	r3, #0
	str	r3, [fp, #-24]
	b	.L478
.L491:
	mov	r3, #0
	str	r3, [fp, #-32]
	b	.L479
.L486:
	ldr	r2, [fp, #-272]
	ldr	r3, [fp, #-32]
	add	r3, r3, #4544
	add	r3, r3, #60
	lsl	r3, r3, #2
	add	r3, r2, r3
	ldr	r3, [r3, #4]
	str	r3, [fp, #-88]
	mov	r3, #0
	str	r3, [fp, #-40]
	b	.L480
.L485:
	mov	r3, #0
	str	r3, [fp, #-36]
	b	.L481
.L484:
	ldr	r1, [fp, #-272]
	ldr	r2, [fp, #-88]
	mov	r3, r2
	lsl	r3, r3, #3
	add	r3, r3, r2
	lsl	r3, r3, #3
	add	r3, r1, r3
	add	r3, r3, #17920
	add	r3, r3, #160
	ldr	r3, [r3]
	ldr	r2, [fp, #-24]
	mul	r2, r2, r3
	ldr	r3, [fp, #-36]
	add	r3, r2, r3
	lsl	r3, r3, #3
	str	r3, [fp, #-92]
	ldr	r1, [fp, #-272]
	ldr	r2, [fp, #-88]
	mov	r3, r2
	lsl	r3, r3, #3
	add	r3, r3, r2
	lsl	r3, r3, #3
	add	r3, r1, r3
	add	r3, r3, #17920
	add	r3, r3, #164
	ldr	r3, [r3]
	ldr	r2, [fp, #-28]
	mul	r2, r2, r3
	ldr	r3, [fp, #-40]
	add	r3, r2, r3
	lsl	r3, r3, #3
	str	r3, [fp, #-96]
	ldr	r1, [fp, #-272]
	ldr	r2, [fp, #-88]
	mov	r3, r2
	lsl	r3, r3, #3
	add	r3, r3, r2
	lsl	r3, r3, #3
	add	r3, r1, r3
	add	r3, r3, #17920
	add	r3, r3, #176
	ldr	r3, [r3]
	str	r3, [fp, #-100]
	ldr	r3, [fp, #-272]
	add	r1, r3, #4
	ldr	r0, [fp, #-272]
	ldr	r2, [fp, #-88]
	mov	r3, r2
	lsl	r3, r3, #3
	add	r3, r3, r2
	lsl	r3, r3, #3
	add	r3, r0, r3
	add	r3, r3, #17920
	add	r3, r3, #172
	ldr	r3, [r3]
	mov	r2, r3
	mov	r3, r2
	lsl	r3, r3, #3
	sub	r3, r3, r2
	lsl	r2, r3, #4
	sub	r2, r2, r3
	lsl	r3, r2, #4
	mov	r2, r3
	mov	r3, r2
	add	ip, r1, r3
	ldr	r3, [fp, #-272]
	add	r1, r3, #6720
	add	r1, r1, #4
	ldr	r2, [fp, #-100]
	mov	r3, r2
	lsl	r3, r3, #3
	sub	r3, r3, r2
	lsl	r2, r3, #4
	sub	r2, r2, r3
	lsl	r3, r2, #4
	mov	r2, r3
	mov	r3, r2
	add	lr, r1, r3
	ldr	r3, [fp, #-100]
	lsl	r3, r3, #10
	add	r3, r3, #13952
	ldr	r2, [fp, #-272]
	add	r3, r2, r3
	add	r1, r3, #4
	ldr	r0, [fp, #-272]
	ldr	r2, [fp, #-88]
	mov	r3, r2
	lsl	r3, r3, #3
	add	r3, r3, r2
	lsl	r3, r3, #3
	add	r3, r0, r3
	add	r3, r3, #17920
	add	r3, r3, #168
	ldr	r3, [r3]
	add	r3, r3, #105
	lsl	r3, r3, #7
	ldr	r2, [fp, #-272]
	add	r3, r2, r3
	add	r3, r3, #4
	sub	r0, fp, #264
	str	r3, [sp, #8]
	ldr	r3, [fp, #-88]
	str	r3, [sp, #4]
	str	r1, [sp]
	mov	r3, lr
	mov	r2, ip
	mov	r1, r0
	ldr	r0, [fp, #-272]
	bl	stbi__jpeg_decode_block
	mov	r3, r0
	cmp	r3, #0
	bne	.L482
	mov	r3, #0
	b	.L476
.L482:
	ldr	r3, [fp, #-272]
	add	r3, r3, #16384
	ldr	r4, [r3, #2060]
	ldr	r1, [fp, #-272]
	ldr	r2, [fp, #-88]
	mov	r3, r2
	lsl	r3, r3, #3
	add	r3, r3, r2
	lsl	r3, r3, #3
	add	r3, r1, r3
	add	r3, r3, #17920
	add	r3, r3, #200
	ldr	r1, [r3]
	ldr	r0, [fp, #-272]
	ldr	r2, [fp, #-88]
	mov	r3, r2
	lsl	r3, r3, #3
	add	r3, r3, r2
	lsl	r3, r3, #3
	add	r3, r0, r3
	add	r3, r3, #17920
	add	r3, r3, #192
	ldr	r3, [r3]
	ldr	r2, [fp, #-96]
	mul	r3, r2, r3
	mov	r2, r3
	ldr	r3, [fp, #-92]
	add	r3, r2, r3
	add	r0, r1, r3
	ldr	r1, [fp, #-272]
	ldr	r2, [fp, #-88]
	mov	r3, r2
	lsl	r3, r3, #3
	add	r3, r3, r2
	lsl	r3, r3, #3
	add	r3, r1, r3
	add	r3, r3, #17920
	add	r3, r3, #192
	ldr	r3, [r3]
	sub	r2, fp, #264
	mov	r1, r3
	blx	r4
	ldr	r3, [fp, #-36]
	add	r3, r3, #1
	str	r3, [fp, #-36]
.L481:
	ldr	r1, [fp, #-272]
	ldr	r2, [fp, #-88]
	mov	r3, r2
	lsl	r3, r3, #3
	add	r3, r3, r2
	lsl	r3, r3, #3
	add	r3, r1, r3
	add	r3, r3, #17920
	add	r3, r3, #160
	ldr	r3, [r3]
	ldr	r2, [fp, #-36]
	cmp	r2, r3
	blt	.L484
	ldr	r3, [fp, #-40]
	add	r3, r3, #1
	str	r3, [fp, #-40]
.L480:
	ldr	r1, [fp, #-272]
	ldr	r2, [fp, #-88]
	mov	r3, r2
	lsl	r3, r3, #3
	add	r3, r3, r2
	lsl	r3, r3, #3
	add	r3, r1, r3
	add	r3, r3, #17920
	add	r3, r3, #164
	ldr	r3, [r3]
	ldr	r2, [fp, #-40]
	cmp	r2, r3
	blt	.L485
	ldr	r3, [fp, #-32]
	add	r3, r3, #1
	str	r3, [fp, #-32]
.L479:
	ldr	r3, [fp, #-272]
	add	r3, r3, #16384
	ldr	r3, [r3, #2032]
	ldr	r2, [fp, #-32]
	cmp	r2, r3
	blt	.L486
	ldr	r3, [fp, #-272]
	add	r3, r3, #16384
	ldr	r3, [r3, #2056]
	sub	r3, r3, #1
	ldr	r2, [fp, #-272]
	add	r2, r2, #16384
	str	r3, [r2, #2056]
	ldr	r3, [fp, #-272]
	add	r3, r3, #16384
	ldr	r3, [r3, #2056]
	cmp	r3, #0
	bgt	.L487
	ldr	r3, [fp, #-272]
	add	r3, r3, #16384
	ldr	r3, [r3, #1984]
	cmp	r3, #23
	bgt	.L488
	ldr	r0, [fp, #-272]
	bl	stbi__grow_buffer_unsafe
.L488:
	ldr	r3, [fp, #-272]
	add	r3, r3, #16384
	ldrb	r3, [r3, #1988]	@ zero_extendqisi2
	cmp	r3, #207
	bls	.L489
	ldr	r3, [fp, #-272]
	add	r3, r3, #16384
	ldrb	r3, [r3, #1988]	@ zero_extendqisi2
	cmp	r3, #215
	bls	.L490
.L489:
	mov	r3, #1
	b	.L476
.L490:
	ldr	r0, [fp, #-272]
	bl	stbi__jpeg_reset
.L487:
	ldr	r3, [fp, #-24]
	add	r3, r3, #1
	str	r3, [fp, #-24]
.L478:
	ldr	r3, [fp, #-272]
	add	r3, r3, #16384
	ldr	r3, [r3, #1676]
	ldr	r2, [fp, #-24]
	cmp	r2, r3
	blt	.L491
	ldr	r3, [fp, #-28]
	add	r3, r3, #1
	str	r3, [fp, #-28]
.L477:
	ldr	r3, [fp, #-272]
	add	r3, r3, #16384
	ldr	r3, [r3, #1680]
	ldr	r2, [fp, #-28]
	cmp	r2, r3
	blt	.L492
	mov	r3, #1
	b	.L476
.L464:
	ldr	r3, [fp, #-272]
	add	r3, r3, #16384
	ldr	r3, [r3, #2032]
	cmp	r3, #1
	bne	.L493
	ldr	r3, [fp, #-272]
	add	r3, r3, #16384
	ldr	r3, [r3, #2036]
	str	r3, [fp, #-104]
	ldr	r1, [fp, #-272]
	ldr	r2, [fp, #-104]
	mov	r3, r2
	lsl	r3, r3, #3
	add	r3, r3, r2
	lsl	r3, r3, #3
	add	r3, r1, r3
	add	r3, r3, #17920
	add	r3, r3, #184
	ldr	r3, [r3]
	add	r3, r3, #7
	asr	r3, r3, #3
	str	r3, [fp, #-108]
	ldr	r1, [fp, #-272]
	ldr	r2, [fp, #-104]
	mov	r3, r2
	lsl	r3, r3, #3
	add	r3, r3, r2
	lsl	r3, r3, #3
	add	r3, r1, r3
	add	r3, r3, #17920
	add	r3, r3, #188
	ldr	r3, [r3]
	add	r3, r3, #7
	asr	r3, r3, #3
	str	r3, [fp, #-112]
	mov	r3, #0
	str	r3, [fp, #-48]
	b	.L494
.L503:
	mov	r3, #0
	str	r3, [fp, #-44]
	b	.L495
.L502:
	ldr	r1, [fp, #-272]
	ldr	r2, [fp, #-104]
	mov	r3, r2
	lsl	r3, r3, #3
	add	r3, r3, r2
	lsl	r3, r3, #3
	add	r3, r1, r3
	add	r3, r3, #17920
	add	r3, r3, #216
	ldr	r1, [r3]
	ldr	r0, [fp, #-272]
	ldr	r2, [fp, #-104]
	mov	r3, r2
	lsl	r3, r3, #3
	add	r3, r3, r2
	lsl	r3, r3, #3
	add	r3, r0, r3
	add	r3, r3, #17920
	add	r3, r3, #220
	ldr	r3, [r3]
	ldr	r2, [fp, #-48]
	mul	r2, r2, r3
	ldr	r3, [fp, #-44]
	add	r3, r2, r3
	lsl	r3, r3, #7
	add	r3, r1, r3
	str	r3, [fp, #-116]
	ldr	r3, [fp, #-272]
	add	r3, r3, #16384
	ldr	r3, [r3, #2000]
	cmp	r3, #0
	bne	.L496
	ldr	r1, [fp, #-272]
	ldr	r2, [fp, #-104]
	mov	r3, r2
	lsl	r3, r3, #3
	add	r3, r3, r2
	lsl	r3, r3, #3
	add	r3, r1, r3
	add	r3, r3, #17920
	add	r3, r3, #172
	ldr	r2, [r3]
	mov	r3, r2
	lsl	r3, r3, #3
	sub	r3, r3, r2
	lsl	r2, r3, #4
	sub	r2, r2, r3
	lsl	r3, r2, #4
	mov	r2, r3
	ldr	r3, [fp, #-272]
	add	r3, r3, r2
	add	r2, r3, #4
	ldr	r3, [fp, #-104]
	ldr	r1, [fp, #-116]
	ldr	r0, [fp, #-272]
	bl	stbi__jpeg_decode_block_prog_dc
	mov	r3, r0
	cmp	r3, #0
	bne	.L497
	mov	r3, #0
	b	.L476
.L496:
	ldr	r1, [fp, #-272]
	ldr	r2, [fp, #-104]
	mov	r3, r2
	lsl	r3, r3, #3
	add	r3, r3, r2
	lsl	r3, r3, #3
	add	r3, r1, r3
	add	r3, r3, #17920
	add	r3, r3, #176
	ldr	r3, [r3]
	str	r3, [fp, #-120]
	ldr	r2, [fp, #-120]
	mov	r3, r2
	lsl	r3, r3, #3
	sub	r3, r3, r2
	lsl	r2, r3, #4
	sub	r2, r2, r3
	lsl	r3, r2, #4
	mov	r2, r3
	add	r3, r2, #6720
	ldr	r2, [fp, #-272]
	add	r3, r2, r3
	add	r1, r3, #4
	ldr	r3, [fp, #-120]
	lsl	r3, r3, #10
	add	r3, r3, #13952
	ldr	r2, [fp, #-272]
	add	r3, r2, r3
	add	r3, r3, #4
	mov	r2, r1
	ldr	r1, [fp, #-116]
	ldr	r0, [fp, #-272]
	bl	stbi__jpeg_decode_block_prog_ac
	mov	r3, r0
	cmp	r3, #0
	bne	.L497
	mov	r3, #0
	b	.L476
.L497:
	ldr	r3, [fp, #-272]
	add	r3, r3, #16384
	ldr	r3, [r3, #2056]
	sub	r3, r3, #1
	ldr	r2, [fp, #-272]
	add	r2, r2, #16384
	str	r3, [r2, #2056]
	ldr	r3, [fp, #-272]
	add	r3, r3, #16384
	ldr	r3, [r3, #2056]
	cmp	r3, #0
	bgt	.L498
	ldr	r3, [fp, #-272]
	add	r3, r3, #16384
	ldr	r3, [r3, #1984]
	cmp	r3, #23
	bgt	.L499
	ldr	r0, [fp, #-272]
	bl	stbi__grow_buffer_unsafe
.L499:
	ldr	r3, [fp, #-272]
	add	r3, r3, #16384
	ldrb	r3, [r3, #1988]	@ zero_extendqisi2
	cmp	r3, #207
	bls	.L500
	ldr	r3, [fp, #-272]
	add	r3, r3, #16384
	ldrb	r3, [r3, #1988]	@ zero_extendqisi2
	cmp	r3, #215
	bls	.L501
.L500:
	mov	r3, #1
	b	.L476
.L501:
	ldr	r0, [fp, #-272]
	bl	stbi__jpeg_reset
.L498:
	ldr	r3, [fp, #-44]
	add	r3, r3, #1
	str	r3, [fp, #-44]
.L495:
	ldr	r2, [fp, #-44]
	ldr	r3, [fp, #-108]
	cmp	r2, r3
	blt	.L502
	ldr	r3, [fp, #-48]
	add	r3, r3, #1
	str	r3, [fp, #-48]
.L494:
	ldr	r2, [fp, #-48]
	ldr	r3, [fp, #-112]
	cmp	r2, r3
	blt	.L503
	mov	r3, #1
	b	.L476
.L493:
	mov	r3, #0
	str	r3, [fp, #-56]
	b	.L504
.L518:
	mov	r3, #0
	str	r3, [fp, #-52]
	b	.L505
.L517:
	mov	r3, #0
	str	r3, [fp, #-60]
	b	.L506
.L512:
	ldr	r2, [fp, #-272]
	ldr	r3, [fp, #-60]
	add	r3, r3, #4544
	add	r3, r3, #60
	lsl	r3, r3, #2
	add	r3, r2, r3
	ldr	r3, [r3, #4]
	str	r3, [fp, #-124]
	mov	r3, #0
	str	r3, [fp, #-68]
	b	.L507
.L511:
	mov	r3, #0
	str	r3, [fp, #-64]
	b	.L508
.L510:
	ldr	r1, [fp, #-272]
	ldr	r2, [fp, #-124]
	mov	r3, r2
	lsl	r3, r3, #3
	add	r3, r3, r2
	lsl	r3, r3, #3
	add	r3, r1, r3
	add	r3, r3, #17920
	add	r3, r3, #160
	ldr	r3, [r3]
	ldr	r2, [fp, #-52]
	mul	r3, r2, r3
	ldr	r2, [fp, #-64]
	add	r3, r2, r3
	str	r3, [fp, #-128]
	ldr	r1, [fp, #-272]
	ldr	r2, [fp, #-124]
	mov	r3, r2
	lsl	r3, r3, #3
	add	r3, r3, r2
	lsl	r3, r3, #3
	add	r3, r1, r3
	add	r3, r3, #17920
	add	r3, r3, #164
	ldr	r3, [r3]
	ldr	r2, [fp, #-56]
	mul	r3, r2, r3
	ldr	r2, [fp, #-68]
	add	r3, r2, r3
	str	r3, [fp, #-132]
	ldr	r1, [fp, #-272]
	ldr	r2, [fp, #-124]
	mov	r3, r2
	lsl	r3, r3, #3
	add	r3, r3, r2
	lsl	r3, r3, #3
	add	r3, r1, r3
	add	r3, r3, #17920
	add	r3, r3, #216
	ldr	r1, [r3]
	ldr	r0, [fp, #-272]
	ldr	r2, [fp, #-124]
	mov	r3, r2
	lsl	r3, r3, #3
	add	r3, r3, r2
	lsl	r3, r3, #3
	add	r3, r0, r3
	add	r3, r3, #17920
	add	r3, r3, #220
	ldr	r3, [r3]
	ldr	r2, [fp, #-132]
	mul	r2, r2, r3
	ldr	r3, [fp, #-128]
	add	r3, r2, r3
	lsl	r3, r3, #7
	add	r3, r1, r3
	str	r3, [fp, #-136]
	ldr	r1, [fp, #-272]
	ldr	r2, [fp, #-124]
	mov	r3, r2
	lsl	r3, r3, #3
	add	r3, r3, r2
	lsl	r3, r3, #3
	add	r3, r1, r3
	add	r3, r3, #17920
	add	r3, r3, #172
	ldr	r2, [r3]
	mov	r3, r2
	lsl	r3, r3, #3
	sub	r3, r3, r2
	lsl	r2, r3, #4
	sub	r2, r2, r3
	lsl	r3, r2, #4
	mov	r2, r3
	ldr	r3, [fp, #-272]
	add	r3, r3, r2
	add	r2, r3, #4
	ldr	r3, [fp, #-124]
	ldr	r1, [fp, #-136]
	ldr	r0, [fp, #-272]
	bl	stbi__jpeg_decode_block_prog_dc
	mov	r3, r0
	cmp	r3, #0
	bne	.L509
	mov	r3, #0
	b	.L476
.L509:
	ldr	r3, [fp, #-64]
	add	r3, r3, #1
	str	r3, [fp, #-64]
.L508:
	ldr	r1, [fp, #-272]
	ldr	r2, [fp, #-124]
	mov	r3, r2
	lsl	r3, r3, #3
	add	r3, r3, r2
	lsl	r3, r3, #3
	add	r3, r1, r3
	add	r3, r3, #17920
	add	r3, r3, #160
	ldr	r3, [r3]
	ldr	r2, [fp, #-64]
	cmp	r2, r3
	blt	.L510
	ldr	r3, [fp, #-68]
	add	r3, r3, #1
	str	r3, [fp, #-68]
.L507:
	ldr	r1, [fp, #-272]
	ldr	r2, [fp, #-124]
	mov	r3, r2
	lsl	r3, r3, #3
	add	r3, r3, r2
	lsl	r3, r3, #3
	add	r3, r1, r3
	add	r3, r3, #17920
	add	r3, r3, #164
	ldr	r3, [r3]
	ldr	r2, [fp, #-68]
	cmp	r2, r3
	blt	.L511
	ldr	r3, [fp, #-60]
	add	r3, r3, #1
	str	r3, [fp, #-60]
.L506:
	ldr	r3, [fp, #-272]
	add	r3, r3, #16384
	ldr	r3, [r3, #2032]
	ldr	r2, [fp, #-60]
	cmp	r2, r3
	blt	.L512
	ldr	r3, [fp, #-272]
	add	r3, r3, #16384
	ldr	r3, [r3, #2056]
	sub	r3, r3, #1
	ldr	r2, [fp, #-272]
	add	r2, r2, #16384
	str	r3, [r2, #2056]
	ldr	r3, [fp, #-272]
	add	r3, r3, #16384
	ldr	r3, [r3, #2056]
	cmp	r3, #0
	bgt	.L513
	ldr	r3, [fp, #-272]
	add	r3, r3, #16384
	ldr	r3, [r3, #1984]
	cmp	r3, #23
	bgt	.L514
	ldr	r0, [fp, #-272]
	bl	stbi__grow_buffer_unsafe
.L514:
	ldr	r3, [fp, #-272]
	add	r3, r3, #16384
	ldrb	r3, [r3, #1988]	@ zero_extendqisi2
	cmp	r3, #207
	bls	.L515
	ldr	r3, [fp, #-272]
	add	r3, r3, #16384
	ldrb	r3, [r3, #1988]	@ zero_extendqisi2
	cmp	r3, #215
	bls	.L516
.L515:
	mov	r3, #1
	b	.L476
.L516:
	ldr	r0, [fp, #-272]
	bl	stbi__jpeg_reset
.L513:
	ldr	r3, [fp, #-52]
	add	r3, r3, #1
	str	r3, [fp, #-52]
.L505:
	ldr	r3, [fp, #-272]
	add	r3, r3, #16384
	ldr	r3, [r3, #1676]
	ldr	r2, [fp, #-52]
	cmp	r2, r3
	blt	.L517
	ldr	r3, [fp, #-56]
	add	r3, r3, #1
	str	r3, [fp, #-56]
.L504:
	ldr	r3, [fp, #-272]
	add	r3, r3, #16384
	ldr	r3, [r3, #1680]
	ldr	r2, [fp, #-56]
	cmp	r2, r3
	blt	.L518
	mov	r3, #1
.L476:
	mov	r0, r3
	sub	sp, fp, #8
	@ sp needed
	pop	{r4, fp, pc}
	.size	stbi__parse_entropy_coded_data, .-stbi__parse_entropy_coded_data
	.align	2
	.syntax unified
	.arm
	.fpu vfpv3-d16
	.type	stbi__jpeg_dequantize, %function
stbi__jpeg_dequantize:
	@ args = 0, pretend = 0, frame = 16
	@ frame_needed = 1, uses_anonymous_args = 0
	@ link register save eliminated.
	str	fp, [sp, #-4]!
	add	fp, sp, #0
	sub	sp, sp, #20
	str	r0, [fp, #-16]
	str	r1, [fp, #-20]
	mov	r3, #0
	str	r3, [fp, #-8]
	b	.L520
.L521:
	ldr	r3, [fp, #-8]
	lsl	r3, r3, #1
	ldr	r2, [fp, #-16]
	add	r3, r2, r3
	ldrsh	r3, [r3]
	uxth	r2, r3
	ldr	r3, [fp, #-8]
	lsl	r3, r3, #1
	ldr	r1, [fp, #-20]
	add	r3, r1, r3
	ldrh	r3, [r3]
	smulbb	r3, r2, r3
	uxth	r1, r3
	ldr	r3, [fp, #-8]
	lsl	r3, r3, #1
	ldr	r2, [fp, #-16]
	add	r3, r2, r3
	sxth	r2, r1
	strh	r2, [r3]	@ movhi
	ldr	r3, [fp, #-8]
	add	r3, r3, #1
	str	r3, [fp, #-8]
.L520:
	ldr	r3, [fp, #-8]
	cmp	r3, #63
	ble	.L521
	nop
	add	sp, fp, #0
	@ sp needed
	ldr	fp, [sp], #4
	bx	lr
	.size	stbi__jpeg_dequantize, .-stbi__jpeg_dequantize
	.align	2
	.syntax unified
	.arm
	.fpu vfpv3-d16
	.type	stbi__jpeg_finish, %function
stbi__jpeg_finish:
	@ args = 0, pretend = 0, frame = 32
	@ frame_needed = 1, uses_anonymous_args = 0
	push	{r4, fp, lr}
	add	fp, sp, #8
	sub	sp, sp, #36
	str	r0, [fp, #-40]
	ldr	r3, [fp, #-40]
	add	r3, r3, #16384
	ldr	r3, [r3, #1996]
	cmp	r3, #0
	beq	.L530
	mov	r3, #0
	str	r3, [fp, #-24]
	b	.L524
.L529:
	ldr	r1, [fp, #-40]
	ldr	r2, [fp, #-24]
	mov	r3, r2
	lsl	r3, r3, #3
	add	r3, r3, r2
	lsl	r3, r3, #3
	add	r3, r1, r3
	add	r3, r3, #17920
	add	r3, r3, #184
	ldr	r3, [r3]
	add	r3, r3, #7
	asr	r3, r3, #3
	str	r3, [fp, #-28]
	ldr	r1, [fp, #-40]
	ldr	r2, [fp, #-24]
	mov	r3, r2
	lsl	r3, r3, #3
	add	r3, r3, r2
	lsl	r3, r3, #3
	add	r3, r1, r3
	add	r3, r3, #17920
	add	r3, r3, #188
	ldr	r3, [r3]
	add	r3, r3, #7
	asr	r3, r3, #3
	str	r3, [fp, #-32]
	mov	r3, #0
	str	r3, [fp, #-20]
	b	.L525
.L528:
	mov	r3, #0
	str	r3, [fp, #-16]
	b	.L526
.L527:
	ldr	r1, [fp, #-40]
	ldr	r2, [fp, #-24]
	mov	r3, r2
	lsl	r3, r3, #3
	add	r3, r3, r2
	lsl	r3, r3, #3
	add	r3, r1, r3
	add	r3, r3, #17920
	add	r3, r3, #216
	ldr	r1, [r3]
	ldr	r0, [fp, #-40]
	ldr	r2, [fp, #-24]
	mov	r3, r2
	lsl	r3, r3, #3
	add	r3, r3, r2
	lsl	r3, r3, #3
	add	r3, r0, r3
	add	r3, r3, #17920
	add	r3, r3, #220
	ldr	r3, [r3]
	ldr	r2, [fp, #-20]
	mul	r2, r2, r3
	ldr	r3, [fp, #-16]
	add	r3, r2, r3
	lsl	r3, r3, #7
	add	r3, r1, r3
	str	r3, [fp, #-36]
	ldr	r1, [fp, #-40]
	ldr	r2, [fp, #-24]
	mov	r3, r2
	lsl	r3, r3, #3
	add	r3, r3, r2
	lsl	r3, r3, #3
	add	r3, r1, r3
	add	r3, r3, #17920
	add	r3, r3, #168
	ldr	r3, [r3]
	add	r3, r3, #105
	lsl	r3, r3, #7
	ldr	r2, [fp, #-40]
	add	r3, r2, r3
	add	r3, r3, #4
	mov	r1, r3
	ldr	r0, [fp, #-36]
	bl	stbi__jpeg_dequantize
	ldr	r3, [fp, #-40]
	add	r3, r3, #16384
	ldr	r4, [r3, #2060]
	ldr	r1, [fp, #-40]
	ldr	r2, [fp, #-24]
	mov	r3, r2
	lsl	r3, r3, #3
	add	r3, r3, r2
	lsl	r3, r3, #3
	add	r3, r1, r3
	add	r3, r3, #17920
	add	r3, r3, #200
	ldr	r1, [r3]
	ldr	r0, [fp, #-40]
	ldr	r2, [fp, #-24]
	mov	r3, r2
	lsl	r3, r3, #3
	add	r3, r3, r2
	lsl	r3, r3, #3
	add	r3, r0, r3
	add	r3, r3, #17920
	add	r3, r3, #192
	ldr	r3, [r3]
	ldr	r2, [fp, #-20]
	mul	r3, r2, r3
	lsl	r3, r3, #3
	mov	r2, r3
	ldr	r3, [fp, #-16]
	lsl	r3, r3, #3
	add	r3, r2, r3
	add	r0, r1, r3
	ldr	r1, [fp, #-40]
	ldr	r2, [fp, #-24]
	mov	r3, r2
	lsl	r3, r3, #3
	add	r3, r3, r2
	lsl	r3, r3, #3
	add	r3, r1, r3
	add	r3, r3, #17920
	add	r3, r3, #192
	ldr	r3, [r3]
	ldr	r2, [fp, #-36]
	mov	r1, r3
	blx	r4
	ldr	r3, [fp, #-16]
	add	r3, r3, #1
	str	r3, [fp, #-16]
.L526:
	ldr	r2, [fp, #-16]
	ldr	r3, [fp, #-28]
	cmp	r2, r3
	blt	.L527
	ldr	r3, [fp, #-20]
	add	r3, r3, #1
	str	r3, [fp, #-20]
.L525:
	ldr	r2, [fp, #-20]
	ldr	r3, [fp, #-32]
	cmp	r2, r3
	blt	.L528
	ldr	r3, [fp, #-24]
	add	r3, r3, #1
	str	r3, [fp, #-24]
.L524:
	ldr	r3, [fp, #-40]
	ldr	r3, [r3]
	ldr	r3, [r3, #8]
	ldr	r2, [fp, #-24]
	cmp	r2, r3
	blt	.L529
.L530:
	nop
	sub	sp, fp, #8
	@ sp needed
	pop	{r4, fp, pc}
	.size	stbi__jpeg_finish, .-stbi__jpeg_finish
	.align	2
	.syntax unified
	.arm
	.fpu vfpv3-d16
	.type	stbi__process_marker, %function
stbi__process_marker:
	@ args = 0, pretend = 0, frame = 136
	@ frame_needed = 1, uses_anonymous_args = 0
	push	{r4, fp, lr}
	add	fp, sp, #8
	sub	sp, sp, #140
	str	r0, [fp, #-144]
	str	r1, [fp, #-148]
	ldr	r3, [fp, #-148]
	cmp	r3, #219
	beq	.L532
	ldr	r3, [fp, #-148]
	cmp	r3, #219
	bgt	.L533
	ldr	r3, [fp, #-148]
	cmp	r3, #196
	beq	.L534
	b	.L535
.L533:
	ldr	r3, [fp, #-148]
	cmp	r3, #221
	beq	.L536
	ldr	r3, [fp, #-148]
	cmp	r3, #255
	bne	.L535
	mov	r3, #0
	b	.L537
.L536:
	ldr	r3, [fp, #-144]
	ldr	r3, [r3]
	mov	r0, r3
	bl	stbi__get16be
	mov	r3, r0
	cmp	r3, #4
	beq	.L538
	mov	r3, #0
	b	.L537
.L538:
	ldr	r3, [fp, #-144]
	ldr	r3, [r3]
	mov	r0, r3
	bl	stbi__get16be
	mov	r2, r0
	ldr	r3, [fp, #-144]
	add	r3, r3, #16384
	str	r2, [r3, #2052]
	mov	r3, #1
	b	.L537
.L532:
	ldr	r3, [fp, #-144]
	ldr	r3, [r3]
	mov	r0, r3
	bl	stbi__get16be
	mov	r3, r0
	sub	r3, r3, #2
	str	r3, [fp, #-16]
	b	.L539
.L548:
	ldr	r3, [fp, #-144]
	ldr	r3, [r3]
	mov	r0, r3
	bl	stbi__get8
	mov	r3, r0
	str	r3, [fp, #-52]
	ldr	r3, [fp, #-52]
	asr	r3, r3, #4
	str	r3, [fp, #-56]
	ldr	r3, [fp, #-56]
	cmp	r3, #0
	movne	r3, #1
	moveq	r3, #0
	uxtb	r3, r3
	str	r3, [fp, #-60]
	ldr	r3, [fp, #-52]
	and	r3, r3, #15
	str	r3, [fp, #-64]
	ldr	r3, [fp, #-56]
	cmp	r3, #0
	beq	.L540
	ldr	r3, [fp, #-56]
	cmp	r3, #1
	beq	.L540
	mov	r3, #0
	b	.L537
.L540:
	ldr	r3, [fp, #-64]
	cmp	r3, #3
	ble	.L541
	mov	r3, #0
	b	.L537
.L541:
	mov	r3, #0
	str	r3, [fp, #-20]
	b	.L542
.L545:
	ldr	r3, [fp, #-60]
	cmp	r3, #0
	beq	.L543
	ldr	r3, [fp, #-144]
	ldr	r3, [r3]
	mov	r0, r3
	bl	stbi__get16be
	mov	r3, r0
	uxth	r2, r3
	b	.L544
.L543:
	ldr	r3, [fp, #-144]
	ldr	r3, [r3]
	mov	r0, r3
	bl	stbi__get8
	mov	r3, r0
	uxth	r2, r3
.L544:
	movw	r3, #:lower16:stbi__jpeg_dezigzag
	movt	r3, #:upper16:stbi__jpeg_dezigzag
	ldr	r1, [fp, #-20]
	add	r3, r3, r1
	ldrb	r3, [r3]	@ zero_extendqisi2
	mov	r0, r3
	ldr	r1, [fp, #-144]
	ldr	r3, [fp, #-64]
	lsl	r3, r3, #6
	add	r3, r3, r0
	add	r3, r3, #6720
	lsl	r3, r3, #1
	add	r3, r1, r3
	add	r3, r3, #4
	strh	r2, [r3]	@ movhi
	ldr	r3, [fp, #-20]
	add	r3, r3, #1
	str	r3, [fp, #-20]
.L542:
	ldr	r3, [fp, #-20]
	cmp	r3, #63
	ble	.L545
	ldr	r3, [fp, #-60]
	cmp	r3, #0
	beq	.L546
	mov	r3, #129
	b	.L547
.L546:
	mov	r3, #65
.L547:
	ldr	r2, [fp, #-16]
	sub	r3, r2, r3
	str	r3, [fp, #-16]
.L539:
	ldr	r3, [fp, #-16]
	cmp	r3, #0
	bgt	.L548
	ldr	r3, [fp, #-16]
	cmp	r3, #0
	moveq	r3, #1
	movne	r3, #0
	uxtb	r3, r3
	b	.L537
.L534:
	ldr	r3, [fp, #-144]
	ldr	r3, [r3]
	mov	r0, r3
	bl	stbi__get16be
	mov	r3, r0
	sub	r3, r3, #2
	str	r3, [fp, #-16]
	b	.L549
.L562:
	mov	r3, #0
	str	r3, [fp, #-32]
	ldr	r3, [fp, #-144]
	ldr	r3, [r3]
	mov	r0, r3
	bl	stbi__get8
	mov	r3, r0
	str	r3, [fp, #-68]
	ldr	r3, [fp, #-68]
	asr	r3, r3, #4
	str	r3, [fp, #-72]
	ldr	r3, [fp, #-68]
	and	r3, r3, #15
	str	r3, [fp, #-76]
	ldr	r3, [fp, #-72]
	cmp	r3, #1
	bgt	.L550
	ldr	r3, [fp, #-76]
	cmp	r3, #3
	ble	.L551
.L550:
	mov	r3, #0
	b	.L537
.L551:
	mov	r3, #0
	str	r3, [fp, #-28]
	b	.L553
.L554:
	ldr	r3, [fp, #-144]
	ldr	r3, [r3]
	mov	r0, r3
	bl	stbi__get8
	mov	r3, r0
	mov	r2, r3
	ldr	r3, [fp, #-28]
	lsl	r3, r3, #2
	sub	r1, fp, #12
	add	r3, r1, r3
	str	r2, [r3, #-128]
	ldr	r3, [fp, #-28]
	lsl	r3, r3, #2
	sub	r2, fp, #12
	add	r3, r2, r3
	ldr	r3, [r3, #-128]
	ldr	r2, [fp, #-32]
	add	r3, r2, r3
	str	r3, [fp, #-32]
	ldr	r3, [fp, #-28]
	add	r3, r3, #1
	str	r3, [fp, #-28]
.L553:
	ldr	r3, [fp, #-28]
	cmp	r3, #15
	ble	.L554
	ldr	r3, [fp, #-16]
	sub	r3, r3, #17
	str	r3, [fp, #-16]
	ldr	r3, [fp, #-72]
	cmp	r3, #0
	bne	.L555
	ldr	r3, [fp, #-144]
	add	r1, r3, #4
	ldr	r2, [fp, #-76]
	mov	r3, r2
	lsl	r3, r3, #3
	sub	r3, r3, r2
	lsl	r2, r3, #4
	sub	r2, r2, r3
	lsl	r3, r2, #4
	mov	r2, r3
	mov	r3, r2
	add	r3, r1, r3
	sub	r2, fp, #140
	mov	r1, r2
	mov	r0, r3
	bl	stbi__build_huffman
	mov	r3, r0
	cmp	r3, #0
	bne	.L556
	mov	r3, #0
	b	.L537
.L556:
	ldr	r2, [fp, #-76]
	mov	r3, r2
	lsl	r3, r3, #3
	sub	r3, r3, r2
	lsl	r2, r3, #4
	sub	r2, r2, r3
	lsl	r3, r2, #4
	mov	r2, r3
	add	r3, r2, #1024
	ldr	r2, [fp, #-144]
	add	r3, r2, r3
	add	r3, r3, #4
	str	r3, [fp, #-24]
	b	.L557
.L555:
	ldr	r3, [fp, #-144]
	add	r1, r3, #6720
	add	r1, r1, #4
	ldr	r2, [fp, #-76]
	mov	r3, r2
	lsl	r3, r3, #3
	sub	r3, r3, r2
	lsl	r2, r3, #4
	sub	r2, r2, r3
	lsl	r3, r2, #4
	mov	r2, r3
	mov	r3, r2
	add	r3, r1, r3
	sub	r2, fp, #140
	mov	r1, r2
	mov	r0, r3
	bl	stbi__build_huffman
	mov	r3, r0
	cmp	r3, #0
	bne	.L558
	mov	r3, #0
	b	.L537
.L558:
	ldr	r2, [fp, #-76]
	mov	r3, r2
	lsl	r3, r3, #3
	sub	r3, r3, r2
	lsl	r2, r3, #4
	sub	r2, r2, r3
	lsl	r3, r2, #4
	mov	r2, r3
	add	r3, r2, #7744
	ldr	r2, [fp, #-144]
	add	r3, r2, r3
	add	r3, r3, #4
	str	r3, [fp, #-24]
.L557:
	mov	r3, #0
	str	r3, [fp, #-28]
	b	.L559
.L560:
	ldr	r3, [fp, #-144]
	ldr	r1, [r3]
	ldr	r3, [fp, #-28]
	ldr	r2, [fp, #-24]
	add	r4, r2, r3
	mov	r0, r1
	bl	stbi__get8
	mov	r3, r0
	strb	r3, [r4]
	ldr	r3, [fp, #-28]
	add	r3, r3, #1
	str	r3, [fp, #-28]
.L559:
	ldr	r2, [fp, #-28]
	ldr	r3, [fp, #-32]
	cmp	r2, r3
	blt	.L560
	ldr	r3, [fp, #-72]
	cmp	r3, #0
	beq	.L561
	ldr	r3, [fp, #-76]
	lsl	r3, r3, #10
	add	r3, r3, #13952
	ldr	r2, [fp, #-144]
	add	r3, r2, r3
	add	r0, r3, #4
	ldr	r3, [fp, #-144]
	add	r1, r3, #6720
	add	r1, r1, #4
	ldr	r2, [fp, #-76]
	mov	r3, r2
	lsl	r3, r3, #3
	sub	r3, r3, r2
	lsl	r2, r3, #4
	sub	r2, r2, r3
	lsl	r3, r2, #4
	mov	r2, r3
	mov	r3, r2
	add	r3, r1, r3
	mov	r1, r3
	bl	stbi__build_fast_ac
.L561:
	ldr	r2, [fp, #-16]
	ldr	r3, [fp, #-32]
	sub	r3, r2, r3
	str	r3, [fp, #-16]
.L549:
	ldr	r3, [fp, #-16]
	cmp	r3, #0
	bgt	.L562
	ldr	r3, [fp, #-16]
	cmp	r3, #0
	moveq	r3, #1
	movne	r3, #0
	uxtb	r3, r3
	b	.L537
.L535:
	ldr	r3, [fp, #-148]
	cmp	r3, #223
	ble	.L563
	ldr	r3, [fp, #-148]
	cmp	r3, #239
	ble	.L564
.L563:
	ldr	r3, [fp, #-148]
	cmp	r3, #254
	bne	.L565
.L564:
	ldr	r3, [fp, #-144]
	ldr	r3, [r3]
	mov	r0, r3
	bl	stbi__get16be
	str	r0, [fp, #-16]
	ldr	r3, [fp, #-16]
	cmp	r3, #1
	bgt	.L566
	ldr	r3, [fp, #-148]
	cmp	r3, #254
	bne	.L567
	mov	r3, #0
	b	.L537
.L567:
	mov	r3, #0
	b	.L537
.L566:
	ldr	r3, [fp, #-16]
	sub	r3, r3, #2
	str	r3, [fp, #-16]
	ldr	r3, [fp, #-148]
	cmp	r3, #224
	bne	.L568
	ldr	r3, [fp, #-16]
	cmp	r3, #4
	ble	.L568
	mov	r3, #1
	str	r3, [fp, #-36]
	mov	r3, #0
	str	r3, [fp, #-40]
	b	.L569
.L571:
	ldr	r3, [fp, #-144]
	ldr	r3, [r3]
	mov	r0, r3
	bl	stbi__get8
	mov	r3, r0
	mov	r1, r3
	movw	r3, #:lower16:tag.9071
	movt	r3, #:upper16:tag.9071
	ldr	r2, [fp, #-40]
	add	r3, r3, r2
	ldrb	r3, [r3]	@ zero_extendqisi2
	cmp	r1, r3
	beq	.L570
	mov	r3, #0
	str	r3, [fp, #-36]
.L570:
	ldr	r3, [fp, #-40]
	add	r3, r3, #1
	str	r3, [fp, #-40]
.L569:
	ldr	r3, [fp, #-40]
	cmp	r3, #4
	ble	.L571
	ldr	r3, [fp, #-16]
	sub	r3, r3, #5
	str	r3, [fp, #-16]
	ldr	r3, [fp, #-36]
	cmp	r3, #0
	beq	.L577
	ldr	r3, [fp, #-144]
	add	r3, r3, #16384
	mov	r2, r3
	mov	r3, #1
	str	r3, [r2, #2020]
	b	.L577
.L568:
	ldr	r3, [fp, #-148]
	cmp	r3, #238
	bne	.L573
	ldr	r3, [fp, #-16]
	cmp	r3, #11
	ble	.L573
	mov	r3, #1
	str	r3, [fp, #-44]
	mov	r3, #0
	str	r3, [fp, #-48]
	b	.L574
.L576:
	ldr	r3, [fp, #-144]
	ldr	r3, [r3]
	mov	r0, r3
	bl	stbi__get8
	mov	r3, r0
	mov	r1, r3
	movw	r3, #:lower16:tag.9077
	movt	r3, #:upper16:tag.9077
	ldr	r2, [fp, #-48]
	add	r3, r3, r2
	ldrb	r3, [r3]	@ zero_extendqisi2
	cmp	r1, r3
	beq	.L575
	mov	r3, #0
	str	r3, [fp, #-44]
.L575:
	ldr	r3, [fp, #-48]
	add	r3, r3, #1
	str	r3, [fp, #-48]
.L574:
	ldr	r3, [fp, #-48]
	cmp	r3, #5
	ble	.L576
	ldr	r3, [fp, #-16]
	sub	r3, r3, #6
	str	r3, [fp, #-16]
	ldr	r3, [fp, #-44]
	cmp	r3, #0
	beq	.L573
	ldr	r3, [fp, #-144]
	ldr	r3, [r3]
	mov	r0, r3
	bl	stbi__get8
	ldr	r3, [fp, #-144]
	ldr	r3, [r3]
	mov	r0, r3
	bl	stbi__get16be
	ldr	r3, [fp, #-144]
	ldr	r3, [r3]
	mov	r0, r3
	bl	stbi__get16be
	ldr	r3, [fp, #-144]
	ldr	r3, [r3]
	mov	r0, r3
	bl	stbi__get8
	mov	r3, r0
	mov	r2, r3
	ldr	r3, [fp, #-144]
	add	r3, r3, #16384
	str	r2, [r3, #2024]
	ldr	r3, [fp, #-16]
	sub	r3, r3, #6
	str	r3, [fp, #-16]
	b	.L573
.L577:
	nop
.L573:
	ldr	r3, [fp, #-144]
	ldr	r3, [r3]
	ldr	r1, [fp, #-16]
	mov	r0, r3
	bl	stbi__skip
	mov	r3, #1
	b	.L537
.L565:
	mov	r3, #0
.L537:
	mov	r0, r3
	sub	sp, fp, #8
	@ sp needed
	pop	{r4, fp, pc}
	.size	stbi__process_marker, .-stbi__process_marker
	.align	2
	.syntax unified
	.arm
	.fpu vfpv3-d16
	.type	stbi__process_scan_header, %function
stbi__process_scan_header:
	@ args = 0, pretend = 0, frame = 32
	@ frame_needed = 1, uses_anonymous_args = 0
	push	{fp, lr}
	add	fp, sp, #4
	sub	sp, sp, #32
	str	r0, [fp, #-32]
	ldr	r3, [fp, #-32]
	ldr	r3, [r3]
	mov	r0, r3
	bl	stbi__get16be
	str	r0, [fp, #-16]
	ldr	r3, [fp, #-32]
	ldr	r3, [r3]
	mov	r0, r3
	bl	stbi__get8
	mov	r3, r0
	mov	r2, r3
	ldr	r3, [fp, #-32]
	add	r3, r3, #16384
	str	r2, [r3, #2032]
	ldr	r3, [fp, #-32]
	add	r3, r3, #16384
	ldr	r3, [r3, #2032]
	cmp	r3, #0
	ble	.L579
	ldr	r3, [fp, #-32]
	add	r3, r3, #16384
	ldr	r3, [r3, #2032]
	cmp	r3, #4
	bgt	.L579
	ldr	r3, [fp, #-32]
	add	r3, r3, #16384
	ldr	r2, [r3, #2032]
	ldr	r3, [fp, #-32]
	ldr	r3, [r3]
	ldr	r3, [r3, #8]
	cmp	r2, r3
	ble	.L580
.L579:
	mov	r3, #0
	b	.L581
.L580:
	ldr	r3, [fp, #-32]
	add	r3, r3, #16384
	ldr	r3, [r3, #2032]
	add	r3, r3, #3
	lsl	r3, r3, #1
	ldr	r2, [fp, #-16]
	cmp	r2, r3
	beq	.L582
	mov	r3, #0
	b	.L581
.L582:
	mov	r3, #0
	str	r3, [fp, #-8]
	b	.L583
.L591:
	ldr	r3, [fp, #-32]
	ldr	r3, [r3]
	mov	r0, r3
	bl	stbi__get8
	mov	r3, r0
	str	r3, [fp, #-20]
	ldr	r3, [fp, #-32]
	ldr	r3, [r3]
	mov	r0, r3
	bl	stbi__get8
	mov	r3, r0
	str	r3, [fp, #-24]
	mov	r3, #0
	str	r3, [fp, #-12]
	b	.L584
.L587:
	ldr	r1, [fp, #-32]
	ldr	r2, [fp, #-12]
	mov	r3, r2
	lsl	r3, r3, #3
	add	r3, r3, r2
	lsl	r3, r3, #3
	add	r3, r1, r3
	add	r3, r3, #17920
	add	r3, r3, #156
	ldr	r3, [r3]
	ldr	r2, [fp, #-20]
	cmp	r2, r3
	beq	.L598
	ldr	r3, [fp, #-12]
	add	r3, r3, #1
	str	r3, [fp, #-12]
.L584:
	ldr	r3, [fp, #-32]
	ldr	r3, [r3]
	ldr	r3, [r3, #8]
	ldr	r2, [fp, #-12]
	cmp	r2, r3
	blt	.L587
	b	.L586
.L598:
	nop
.L586:
	ldr	r3, [fp, #-32]
	ldr	r3, [r3]
	ldr	r3, [r3, #8]
	ldr	r2, [fp, #-12]
	cmp	r2, r3
	bne	.L588
	mov	r3, #0
	b	.L581
.L588:
	ldr	r3, [fp, #-24]
	asr	r1, r3, #4
	ldr	r0, [fp, #-32]
	ldr	r2, [fp, #-12]
	mov	r3, r2
	lsl	r3, r3, #3
	add	r3, r3, r2
	lsl	r3, r3, #3
	add	r3, r0, r3
	add	r3, r3, #17920
	add	r3, r3, #172
	str	r1, [r3]
	ldr	r1, [fp, #-32]
	ldr	r2, [fp, #-12]
	mov	r3, r2
	lsl	r3, r3, #3
	add	r3, r3, r2
	lsl	r3, r3, #3
	add	r3, r1, r3
	add	r3, r3, #17920
	add	r3, r3, #172
	ldr	r3, [r3]
	cmp	r3, #3
	ble	.L589
	mov	r3, #0
	b	.L581
.L589:
	ldr	r3, [fp, #-24]
	and	r1, r3, #15
	ldr	r0, [fp, #-32]
	ldr	r2, [fp, #-12]
	mov	r3, r2
	lsl	r3, r3, #3
	add	r3, r3, r2
	lsl	r3, r3, #3
	add	r3, r0, r3
	add	r3, r3, #17920
	add	r3, r3, #176
	str	r1, [r3]
	ldr	r1, [fp, #-32]
	ldr	r2, [fp, #-12]
	mov	r3, r2
	lsl	r3, r3, #3
	add	r3, r3, r2
	lsl	r3, r3, #3
	add	r3, r1, r3
	add	r3, r3, #17920
	add	r3, r3, #176
	ldr	r3, [r3]
	cmp	r3, #3
	ble	.L590
	mov	r3, #0
	b	.L581
.L590:
	ldr	r2, [fp, #-32]
	ldr	r3, [fp, #-8]
	add	r3, r3, #4544
	add	r3, r3, #60
	lsl	r3, r3, #2
	add	r3, r2, r3
	ldr	r2, [fp, #-12]
	str	r2, [r3, #4]
	ldr	r3, [fp, #-8]
	add	r3, r3, #1
	str	r3, [fp, #-8]
.L583:
	ldr	r3, [fp, #-32]
	add	r3, r3, #16384
	ldr	r3, [r3, #2032]
	ldr	r2, [fp, #-8]
	cmp	r2, r3
	blt	.L591
	ldr	r3, [fp, #-32]
	ldr	r3, [r3]
	mov	r0, r3
	bl	stbi__get8
	mov	r3, r0
	mov	r2, r3
	ldr	r3, [fp, #-32]
	add	r3, r3, #16384
	str	r2, [r3, #2000]
	ldr	r3, [fp, #-32]
	ldr	r3, [r3]
	mov	r0, r3
	bl	stbi__get8
	mov	r3, r0
	mov	r2, r3
	ldr	r3, [fp, #-32]
	add	r3, r3, #16384
	str	r2, [r3, #2004]
	ldr	r3, [fp, #-32]
	ldr	r3, [r3]
	mov	r0, r3
	bl	stbi__get8
	mov	r3, r0
	str	r3, [fp, #-28]
	ldr	r3, [fp, #-28]
	asr	r3, r3, #4
	ldr	r2, [fp, #-32]
	add	r2, r2, #16384
	str	r3, [r2, #2008]
	ldr	r3, [fp, #-28]
	and	r3, r3, #15
	ldr	r2, [fp, #-32]
	add	r2, r2, #16384
	str	r3, [r2, #2012]
	ldr	r3, [fp, #-32]
	add	r3, r3, #16384
	ldr	r3, [r3, #1996]
	cmp	r3, #0
	beq	.L592
	ldr	r3, [fp, #-32]
	add	r3, r3, #16384
	ldr	r3, [r3, #2000]
	cmp	r3, #63
	bgt	.L593
	ldr	r3, [fp, #-32]
	add	r3, r3, #16384
	ldr	r3, [r3, #2004]
	cmp	r3, #63
	bgt	.L593
	ldr	r3, [fp, #-32]
	add	r3, r3, #16384
	ldr	r2, [r3, #2000]
	ldr	r3, [fp, #-32]
	add	r3, r3, #16384
	ldr	r3, [r3, #2004]
	cmp	r2, r3
	bgt	.L593
	ldr	r3, [fp, #-32]
	add	r3, r3, #16384
	ldr	r3, [r3, #2008]
	cmp	r3, #13
	bgt	.L593
	ldr	r3, [fp, #-32]
	add	r3, r3, #16384
	ldr	r3, [r3, #2012]
	cmp	r3, #13
	ble	.L594
.L593:
	mov	r3, #0
	b	.L581
.L592:
	ldr	r3, [fp, #-32]
	add	r3, r3, #16384
	ldr	r3, [r3, #2000]
	cmp	r3, #0
	beq	.L595
	mov	r3, #0
	b	.L581
.L595:
	ldr	r3, [fp, #-32]
	add	r3, r3, #16384
	ldr	r3, [r3, #2008]
	cmp	r3, #0
	bne	.L596
	ldr	r3, [fp, #-32]
	add	r3, r3, #16384
	ldr	r3, [r3, #2012]
	cmp	r3, #0
	beq	.L597
.L596:
	mov	r3, #0
	b	.L581
.L597:
	ldr	r3, [fp, #-32]
	add	r3, r3, #16384
	mov	r2, r3
	mov	r3, #63
	str	r3, [r2, #2004]
.L594:
	mov	r3, #1
.L581:
	mov	r0, r3
	sub	sp, fp, #4
	@ sp needed
	pop	{fp, pc}
	.size	stbi__process_scan_header, .-stbi__process_scan_header
	.align	2
	.syntax unified
	.arm
	.fpu vfpv3-d16
	.type	stbi__free_jpeg_components, %function
stbi__free_jpeg_components:
	@ args = 0, pretend = 0, frame = 24
	@ frame_needed = 1, uses_anonymous_args = 0
	push	{fp, lr}
	add	fp, sp, #4
	sub	sp, sp, #24
	str	r0, [fp, #-16]
	str	r1, [fp, #-20]
	str	r2, [fp, #-24]
	mov	r3, #0
	str	r3, [fp, #-8]
	b	.L600
.L604:
	ldr	r1, [fp, #-16]
	ldr	r2, [fp, #-8]
	mov	r3, r2
	lsl	r3, r3, #3
	add	r3, r3, r2
	lsl	r3, r3, #3
	add	r3, r1, r3
	add	r3, r3, #17920
	add	r3, r3, #204
	ldr	r3, [r3]
	cmp	r3, #0
	beq	.L601
	ldr	r1, [fp, #-16]
	ldr	r2, [fp, #-8]
	mov	r3, r2
	lsl	r3, r3, #3
	add	r3, r3, r2
	lsl	r3, r3, #3
	add	r3, r1, r3
	add	r3, r3, #17920
	add	r3, r3, #204
	ldr	r3, [r3]
	mov	r0, r3
	bl	free
	ldr	r1, [fp, #-16]
	ldr	r2, [fp, #-8]
	mov	r3, r2
	lsl	r3, r3, #3
	add	r3, r3, r2
	lsl	r3, r3, #3
	add	r3, r1, r3
	add	r3, r3, #17920
	add	r3, r3, #204
	mov	r2, #0
	str	r2, [r3]
	ldr	r1, [fp, #-16]
	ldr	r2, [fp, #-8]
	mov	r3, r2
	lsl	r3, r3, #3
	add	r3, r3, r2
	lsl	r3, r3, #3
	add	r3, r1, r3
	add	r3, r3, #17920
	add	r3, r3, #200
	mov	r2, #0
	str	r2, [r3]
.L601:
	ldr	r1, [fp, #-16]
	ldr	r2, [fp, #-8]
	mov	r3, r2
	lsl	r3, r3, #3
	add	r3, r3, r2
	lsl	r3, r3, #3
	add	r3, r1, r3
	add	r3, r3, #17920
	add	r3, r3, #208
	ldr	r3, [r3]
	cmp	r3, #0
	beq	.L602
	ldr	r1, [fp, #-16]
	ldr	r2, [fp, #-8]
	mov	r3, r2
	lsl	r3, r3, #3
	add	r3, r3, r2
	lsl	r3, r3, #3
	add	r3, r1, r3
	add	r3, r3, #17920
	add	r3, r3, #208
	ldr	r3, [r3]
	mov	r0, r3
	bl	free
	ldr	r1, [fp, #-16]
	ldr	r2, [fp, #-8]
	mov	r3, r2
	lsl	r3, r3, #3
	add	r3, r3, r2
	lsl	r3, r3, #3
	add	r3, r1, r3
	add	r3, r3, #17920
	add	r3, r3, #208
	mov	r2, #0
	str	r2, [r3]
	ldr	r1, [fp, #-16]
	ldr	r2, [fp, #-8]
	mov	r3, r2
	lsl	r3, r3, #3
	add	r3, r3, r2
	lsl	r3, r3, #3
	add	r3, r1, r3
	add	r3, r3, #17920
	add	r3, r3, #216
	mov	r2, #0
	str	r2, [r3]
.L602:
	ldr	r1, [fp, #-16]
	ldr	r2, [fp, #-8]
	mov	r3, r2
	lsl	r3, r3, #3
	add	r3, r3, r2
	lsl	r3, r3, #3
	add	r3, r1, r3
	add	r3, r3, #17920
	add	r3, r3, #212
	ldr	r3, [r3]
	cmp	r3, #0
	beq	.L603
	ldr	r1, [fp, #-16]
	ldr	r2, [fp, #-8]
	mov	r3, r2
	lsl	r3, r3, #3
	add	r3, r3, r2
	lsl	r3, r3, #3
	add	r3, r1, r3
	add	r3, r3, #17920
	add	r3, r3, #212
	ldr	r3, [r3]
	mov	r0, r3
	bl	free
	ldr	r1, [fp, #-16]
	ldr	r2, [fp, #-8]
	mov	r3, r2
	lsl	r3, r3, #3
	add	r3, r3, r2
	lsl	r3, r3, #3
	add	r3, r1, r3
	add	r3, r3, #17920
	add	r3, r3, #212
	mov	r2, #0
	str	r2, [r3]
.L603:
	ldr	r3, [fp, #-8]
	add	r3, r3, #1
	str	r3, [fp, #-8]
.L600:
	ldr	r2, [fp, #-8]
	ldr	r3, [fp, #-20]
	cmp	r2, r3
	blt	.L604
	ldr	r3, [fp, #-24]
	mov	r0, r3
	sub	sp, fp, #4
	@ sp needed
	pop	{fp, pc}
	.size	stbi__free_jpeg_components, .-stbi__free_jpeg_components
	.global	__aeabi_uidiv
	.align	2
	.syntax unified
	.arm
	.fpu vfpv3-d16
	.type	stbi__process_frame_header, %function
stbi__process_frame_header:
	@ args = 0, pretend = 0, frame = 40
	@ frame_needed = 1, uses_anonymous_args = 0
	push	{fp, lr}
	add	fp, sp, #4
	sub	sp, sp, #40
	str	r0, [fp, #-40]
	str	r1, [fp, #-44]
	ldr	r3, [fp, #-40]
	ldr	r3, [r3]
	str	r3, [fp, #-20]
	mov	r3, #1
	str	r3, [fp, #-12]
	mov	r3, #1
	str	r3, [fp, #-16]
	ldr	r0, [fp, #-20]
	bl	stbi__get16be
	str	r0, [fp, #-24]
	ldr	r3, [fp, #-24]
	cmp	r3, #10
	bgt	.L607
	mov	r3, #0
	b	.L608
.L607:
	ldr	r0, [fp, #-20]
	bl	stbi__get8
	mov	r3, r0
	str	r3, [fp, #-28]
	ldr	r3, [fp, #-28]
	cmp	r3, #8
	beq	.L609
	mov	r3, #0
	b	.L608
.L609:
	ldr	r0, [fp, #-20]
	bl	stbi__get16be
	mov	r3, r0
	mov	r2, r3
	ldr	r3, [fp, #-20]
	str	r2, [r3, #4]
	ldr	r3, [fp, #-20]
	ldr	r3, [r3, #4]
	cmp	r3, #0
	bne	.L610
	mov	r3, #0
	b	.L608
.L610:
	ldr	r0, [fp, #-20]
	bl	stbi__get16be
	mov	r3, r0
	mov	r2, r3
	ldr	r3, [fp, #-20]
	str	r2, [r3]
	ldr	r3, [fp, #-20]
	ldr	r3, [r3]
	cmp	r3, #0
	bne	.L611
	mov	r3, #0
	b	.L608
.L611:
	ldr	r0, [fp, #-20]
	bl	stbi__get8
	mov	r3, r0
	str	r3, [fp, #-32]
	ldr	r3, [fp, #-32]
	cmp	r3, #3
	beq	.L612
	ldr	r3, [fp, #-32]
	cmp	r3, #1
	beq	.L612
	ldr	r3, [fp, #-32]
	cmp	r3, #4
	beq	.L612
	mov	r3, #0
	b	.L608
.L612:
	ldr	r3, [fp, #-20]
	ldr	r2, [fp, #-32]
	str	r2, [r3, #8]
	mov	r3, #0
	str	r3, [fp, #-8]
	b	.L613
.L614:
	ldr	r1, [fp, #-40]
	ldr	r2, [fp, #-8]
	mov	r3, r2
	lsl	r3, r3, #3
	add	r3, r3, r2
	lsl	r3, r3, #3
	add	r3, r1, r3
	add	r3, r3, #17920
	add	r3, r3, #200
	mov	r2, #0
	str	r2, [r3]
	ldr	r1, [fp, #-40]
	ldr	r2, [fp, #-8]
	mov	r3, r2
	lsl	r3, r3, #3
	add	r3, r3, r2
	lsl	r3, r3, #3
	add	r3, r1, r3
	add	r3, r3, #17920
	add	r3, r3, #212
	mov	r2, #0
	str	r2, [r3]
	ldr	r3, [fp, #-8]
	add	r3, r3, #1
	str	r3, [fp, #-8]
.L613:
	ldr	r2, [fp, #-8]
	ldr	r3, [fp, #-32]
	cmp	r2, r3
	blt	.L614
	ldr	r3, [fp, #-20]
	ldr	r2, [r3, #8]
	mov	r3, r2
	lsl	r3, r3, #1
	add	r3, r3, r2
	add	r3, r3, #8
	ldr	r2, [fp, #-24]
	cmp	r2, r3
	beq	.L615
	mov	r3, #0
	b	.L608
.L615:
	ldr	r3, [fp, #-40]
	add	r3, r3, #16384
	mov	r2, r3
	mov	r3, #0
	str	r3, [r2, #2028]
	mov	r3, #0
	str	r3, [fp, #-8]
	b	.L616
.L623:
	ldr	r0, [fp, #-20]
	bl	stbi__get8
	mov	r3, r0
	mov	r0, r3
	ldr	r1, [fp, #-40]
	ldr	r2, [fp, #-8]
	mov	r3, r2
	lsl	r3, r3, #3
	add	r3, r3, r2
	lsl	r3, r3, #3
	add	r3, r1, r3
	add	r3, r3, #17920
	add	r3, r3, #156
	str	r0, [r3]
	ldr	r3, [fp, #-20]
	ldr	r3, [r3, #8]
	cmp	r3, #3
	bne	.L617
	ldr	r1, [fp, #-40]
	ldr	r2, [fp, #-8]
	mov	r3, r2
	lsl	r3, r3, #3
	add	r3, r3, r2
	lsl	r3, r3, #3
	add	r3, r1, r3
	add	r3, r3, #17920
	add	r3, r3, #156
	ldr	r2, [r3]
	movw	r3, #:lower16:rgb.9122
	movt	r3, #:upper16:rgb.9122
	ldr	r1, [fp, #-8]
	add	r3, r3, r1
	ldrb	r3, [r3]	@ zero_extendqisi2
	cmp	r2, r3
	bne	.L617
	ldr	r3, [fp, #-40]
	add	r3, r3, #16384
	ldr	r3, [r3, #2028]
	add	r3, r3, #1
	ldr	r2, [fp, #-40]
	add	r2, r2, #16384
	str	r3, [r2, #2028]
.L617:
	ldr	r0, [fp, #-20]
	bl	stbi__get8
	mov	r3, r0
	str	r3, [fp, #-36]
	ldr	r3, [fp, #-36]
	asr	r1, r3, #4
	ldr	r0, [fp, #-40]
	ldr	r2, [fp, #-8]
	mov	r3, r2
	lsl	r3, r3, #3
	add	r3, r3, r2
	lsl	r3, r3, #3
	add	r3, r0, r3
	add	r3, r3, #17920
	add	r3, r3, #160
	str	r1, [r3]
	ldr	r1, [fp, #-40]
	ldr	r2, [fp, #-8]
	mov	r3, r2
	lsl	r3, r3, #3
	add	r3, r3, r2
	lsl	r3, r3, #3
	add	r3, r1, r3
	add	r3, r3, #17920
	add	r3, r3, #160
	ldr	r3, [r3]
	cmp	r3, #0
	beq	.L618
	ldr	r1, [fp, #-40]
	ldr	r2, [fp, #-8]
	mov	r3, r2
	lsl	r3, r3, #3
	add	r3, r3, r2
	lsl	r3, r3, #3
	add	r3, r1, r3
	add	r3, r3, #17920
	add	r3, r3, #160
	ldr	r3, [r3]
	cmp	r3, #4
	ble	.L619
.L618:
	mov	r3, #0
	b	.L608
.L619:
	ldr	r3, [fp, #-36]
	and	r1, r3, #15
	ldr	r0, [fp, #-40]
	ldr	r2, [fp, #-8]
	mov	r3, r2
	lsl	r3, r3, #3
	add	r3, r3, r2
	lsl	r3, r3, #3
	add	r3, r0, r3
	add	r3, r3, #17920
	add	r3, r3, #164
	str	r1, [r3]
	ldr	r1, [fp, #-40]
	ldr	r2, [fp, #-8]
	mov	r3, r2
	lsl	r3, r3, #3
	add	r3, r3, r2
	lsl	r3, r3, #3
	add	r3, r1, r3
	add	r3, r3, #17920
	add	r3, r3, #164
	ldr	r3, [r3]
	cmp	r3, #0
	beq	.L620
	ldr	r1, [fp, #-40]
	ldr	r2, [fp, #-8]
	mov	r3, r2
	lsl	r3, r3, #3
	add	r3, r3, r2
	lsl	r3, r3, #3
	add	r3, r1, r3
	add	r3, r3, #17920
	add	r3, r3, #164
	ldr	r3, [r3]
	cmp	r3, #4
	ble	.L621
.L620:
	mov	r3, #0
	b	.L608
.L621:
	ldr	r0, [fp, #-20]
	bl	stbi__get8
	mov	r3, r0
	mov	r0, r3
	ldr	r1, [fp, #-40]
	ldr	r2, [fp, #-8]
	mov	r3, r2
	lsl	r3, r3, #3
	add	r3, r3, r2
	lsl	r3, r3, #3
	add	r3, r1, r3
	add	r3, r3, #17920
	add	r3, r3, #168
	str	r0, [r3]
	ldr	r1, [fp, #-40]
	ldr	r2, [fp, #-8]
	mov	r3, r2
	lsl	r3, r3, #3
	add	r3, r3, r2
	lsl	r3, r3, #3
	add	r3, r1, r3
	add	r3, r3, #17920
	add	r3, r3, #168
	ldr	r3, [r3]
	cmp	r3, #3
	ble	.L622
	mov	r3, #0
	b	.L608
.L622:
	ldr	r3, [fp, #-8]
	add	r3, r3, #1
	str	r3, [fp, #-8]
.L616:
	ldr	r3, [fp, #-20]
	ldr	r3, [r3, #8]
	ldr	r2, [fp, #-8]
	cmp	r2, r3
	blt	.L623
	ldr	r3, [fp, #-44]
	cmp	r3, #0
	beq	.L624
	mov	r3, #1
	b	.L608
.L624:
	ldr	r3, [fp, #-20]
	ldr	r3, [r3]
	mov	r0, r3
	ldr	r3, [fp, #-20]
	ldr	r3, [r3, #4]
	mov	r1, r3
	ldr	r3, [fp, #-20]
	ldr	r2, [r3, #8]
	mov	r3, #0
	bl	stbi__mad3sizes_valid
	mov	r3, r0
	cmp	r3, #0
	bne	.L625
	mov	r3, #0
	b	.L608
.L625:
	mov	r3, #0
	str	r3, [fp, #-8]
	b	.L626
.L629:
	ldr	r1, [fp, #-40]
	ldr	r2, [fp, #-8]
	mov	r3, r2
	lsl	r3, r3, #3
	add	r3, r3, r2
	lsl	r3, r3, #3
	add	r3, r1, r3
	add	r3, r3, #17920
	add	r3, r3, #160
	ldr	r3, [r3]
	ldr	r2, [fp, #-12]
	cmp	r2, r3
	bge	.L627
	ldr	r1, [fp, #-40]
	ldr	r2, [fp, #-8]
	mov	r3, r2
	lsl	r3, r3, #3
	add	r3, r3, r2
	lsl	r3, r3, #3
	add	r3, r1, r3
	add	r3, r3, #17920
	add	r3, r3, #160
	ldr	r3, [r3]
	str	r3, [fp, #-12]
.L627:
	ldr	r1, [fp, #-40]
	ldr	r2, [fp, #-8]
	mov	r3, r2
	lsl	r3, r3, #3
	add	r3, r3, r2
	lsl	r3, r3, #3
	add	r3, r1, r3
	add	r3, r3, #17920
	add	r3, r3, #164
	ldr	r3, [r3]
	ldr	r2, [fp, #-16]
	cmp	r2, r3
	bge	.L628
	ldr	r1, [fp, #-40]
	ldr	r2, [fp, #-8]
	mov	r3, r2
	lsl	r3, r3, #3
	add	r3, r3, r2
	lsl	r3, r3, #3
	add	r3, r1, r3
	add	r3, r3, #17920
	add	r3, r3, #164
	ldr	r3, [r3]
	str	r3, [fp, #-16]
.L628:
	ldr	r3, [fp, #-8]
	add	r3, r3, #1
	str	r3, [fp, #-8]
.L626:
	ldr	r3, [fp, #-20]
	ldr	r3, [r3, #8]
	ldr	r2, [fp, #-8]
	cmp	r2, r3
	blt	.L629
	ldr	r3, [fp, #-40]
	add	r3, r3, #16384
	mov	r2, r3
	ldr	r3, [fp, #-12]
	str	r3, [r2, #1668]
	ldr	r3, [fp, #-40]
	add	r3, r3, #16384
	mov	r2, r3
	ldr	r3, [fp, #-16]
	str	r3, [r2, #1672]
	ldr	r3, [fp, #-12]
	lsl	r3, r3, #3
	ldr	r2, [fp, #-40]
	add	r2, r2, #16384
	str	r3, [r2, #1684]
	ldr	r3, [fp, #-16]
	lsl	r3, r3, #3
	ldr	r2, [fp, #-40]
	add	r2, r2, #16384
	str	r3, [r2, #1688]
	ldr	r3, [fp, #-20]
	ldr	r3, [r3]
	ldr	r2, [fp, #-40]
	add	r2, r2, #16384
	ldr	r2, [r2, #1684]
	add	r3, r3, r2
	sub	r2, r3, #1
	ldr	r3, [fp, #-40]
	add	r3, r3, #16384
	ldr	r3, [r3, #1684]
	mov	r1, r3
	mov	r0, r2
	bl	__aeabi_uidiv
	mov	r3, r0
	mov	r2, r3
	ldr	r3, [fp, #-40]
	add	r3, r3, #16384
	str	r2, [r3, #1676]
	ldr	r3, [fp, #-20]
	ldr	r3, [r3, #4]
	ldr	r2, [fp, #-40]
	add	r2, r2, #16384
	ldr	r2, [r2, #1688]
	add	r3, r3, r2
	sub	r2, r3, #1
	ldr	r3, [fp, #-40]
	add	r3, r3, #16384
	ldr	r3, [r3, #1688]
	mov	r1, r3
	mov	r0, r2
	bl	__aeabi_uidiv
	mov	r3, r0
	mov	r2, r3
	ldr	r3, [fp, #-40]
	add	r3, r3, #16384
	str	r2, [r3, #1680]
	mov	r3, #0
	str	r3, [fp, #-8]
	b	.L630
.L634:
	ldr	r3, [fp, #-20]
	ldr	r1, [r3]
	ldr	r0, [fp, #-40]
	ldr	r2, [fp, #-8]
	mov	r3, r2
	lsl	r3, r3, #3
	add	r3, r3, r2
	lsl	r3, r3, #3
	add	r3, r0, r3
	add	r3, r3, #17920
	add	r3, r3, #160
	ldr	r3, [r3]
	mul	r2, r3, r1
	ldr	r3, [fp, #-12]
	add	r3, r2, r3
	sub	r3, r3, #1
	ldr	r2, [fp, #-12]
	mov	r1, r2
	mov	r0, r3
	bl	__aeabi_uidiv
	mov	r3, r0
	mov	r0, r3
	ldr	r1, [fp, #-40]
	ldr	r2, [fp, #-8]
	mov	r3, r2
	lsl	r3, r3, #3
	add	r3, r3, r2
	lsl	r3, r3, #3
	add	r3, r1, r3
	add	r3, r3, #17920
	add	r3, r3, #184
	str	r0, [r3]
	ldr	r3, [fp, #-20]
	ldr	r1, [r3, #4]
	ldr	r0, [fp, #-40]
	ldr	r2, [fp, #-8]
	mov	r3, r2
	lsl	r3, r3, #3
	add	r3, r3, r2
	lsl	r3, r3, #3
	add	r3, r0, r3
	add	r3, r3, #17920
	add	r3, r3, #164
	ldr	r3, [r3]
	mul	r2, r3, r1
	ldr	r3, [fp, #-16]
	add	r3, r2, r3
	sub	r3, r3, #1
	ldr	r2, [fp, #-16]
	mov	r1, r2
	mov	r0, r3
	bl	__aeabi_uidiv
	mov	r3, r0
	mov	r0, r3
	ldr	r1, [fp, #-40]
	ldr	r2, [fp, #-8]
	mov	r3, r2
	lsl	r3, r3, #3
	add	r3, r3, r2
	lsl	r3, r3, #3
	add	r3, r1, r3
	add	r3, r3, #17920
	add	r3, r3, #188
	str	r0, [r3]
	ldr	r3, [fp, #-40]
	add	r3, r3, #16384
	ldr	r1, [r3, #1676]
	ldr	r0, [fp, #-40]
	ldr	r2, [fp, #-8]
	mov	r3, r2
	lsl	r3, r3, #3
	add	r3, r3, r2
	lsl	r3, r3, #3
	add	r3, r0, r3
	add	r3, r3, #17920
	add	r3, r3, #160
	ldr	r3, [r3]
	mul	r3, r3, r1
	lsl	r1, r3, #3
	ldr	r0, [fp, #-40]
	ldr	r2, [fp, #-8]
	mov	r3, r2
	lsl	r3, r3, #3
	add	r3, r3, r2
	lsl	r3, r3, #3
	add	r3, r0, r3
	add	r3, r3, #17920
	add	r3, r3, #192
	str	r1, [r3]
	ldr	r3, [fp, #-40]
	add	r3, r3, #16384
	ldr	r1, [r3, #1680]
	ldr	r0, [fp, #-40]
	ldr	r2, [fp, #-8]
	mov	r3, r2
	lsl	r3, r3, #3
	add	r3, r3, r2
	lsl	r3, r3, #3
	add	r3, r0, r3
	add	r3, r3, #17920
	add	r3, r3, #164
	ldr	r3, [r3]
	mul	r3, r3, r1
	lsl	r1, r3, #3
	ldr	r0, [fp, #-40]
	ldr	r2, [fp, #-8]
	mov	r3, r2
	lsl	r3, r3, #3
	add	r3, r3, r2
	lsl	r3, r3, #3
	add	r3, r0, r3
	add	r3, r3, #17920
	add	r3, r3, #196
	str	r1, [r3]
	ldr	r1, [fp, #-40]
	ldr	r2, [fp, #-8]
	mov	r3, r2
	lsl	r3, r3, #3
	add	r3, r3, r2
	lsl	r3, r3, #3
	add	r3, r1, r3
	add	r3, r3, #17920
	add	r3, r3, #216
	mov	r2, #0
	str	r2, [r3]
	ldr	r1, [fp, #-40]
	ldr	r2, [fp, #-8]
	mov	r3, r2
	lsl	r3, r3, #3
	add	r3, r3, r2
	lsl	r3, r3, #3
	add	r3, r1, r3
	add	r3, r3, #17920
	add	r3, r3, #208
	mov	r2, #0
	str	r2, [r3]
	ldr	r1, [fp, #-40]
	ldr	r2, [fp, #-8]
	mov	r3, r2
	lsl	r3, r3, #3
	add	r3, r3, r2
	lsl	r3, r3, #3
	add	r3, r1, r3
	add	r3, r3, #17920
	add	r3, r3, #212
	mov	r2, #0
	str	r2, [r3]
	ldr	r1, [fp, #-40]
	ldr	r2, [fp, #-8]
	mov	r3, r2
	lsl	r3, r3, #3
	add	r3, r3, r2
	lsl	r3, r3, #3
	add	r3, r1, r3
	add	r3, r3, #17920
	add	r3, r3, #192
	ldr	r0, [r3]
	ldr	r1, [fp, #-40]
	ldr	r2, [fp, #-8]
	mov	r3, r2
	lsl	r3, r3, #3
	add	r3, r3, r2
	lsl	r3, r3, #3
	add	r3, r1, r3
	add	r3, r3, #17920
	add	r3, r3, #196
	ldr	r3, [r3]
	mov	r2, #15
	mov	r1, r3
	bl	stbi__malloc_mad2
	ldr	r1, [fp, #-40]
	ldr	r2, [fp, #-8]
	mov	r3, r2
	lsl	r3, r3, #3
	add	r3, r3, r2
	lsl	r3, r3, #3
	add	r3, r1, r3
	add	r3, r3, #17920
	add	r3, r3, #204
	str	r0, [r3]
	ldr	r1, [fp, #-40]
	ldr	r2, [fp, #-8]
	mov	r3, r2
	lsl	r3, r3, #3
	add	r3, r3, r2
	lsl	r3, r3, #3
	add	r3, r1, r3
	add	r3, r3, #17920
	add	r3, r3, #204
	ldr	r3, [r3]
	cmp	r3, #0
	bne	.L631
	ldr	r3, [fp, #-8]
	add	r3, r3, #1
	mov	r2, #0
	mov	r1, r3
	ldr	r0, [fp, #-40]
	bl	stbi__free_jpeg_components
	mov	r3, r0
	b	.L608
.L631:
	ldr	r1, [fp, #-40]
	ldr	r2, [fp, #-8]
	mov	r3, r2
	lsl	r3, r3, #3
	add	r3, r3, r2
	lsl	r3, r3, #3
	add	r3, r1, r3
	add	r3, r3, #17920
	add	r3, r3, #204
	ldr	r3, [r3]
	add	r3, r3, #15
	bic	r3, r3, #15
	mov	r0, r3
	ldr	r1, [fp, #-40]
	ldr	r2, [fp, #-8]
	mov	r3, r2
	lsl	r3, r3, #3
	add	r3, r3, r2
	lsl	r3, r3, #3
	add	r3, r1, r3
	add	r3, r3, #17920
	add	r3, r3, #200
	str	r0, [r3]
	ldr	r3, [fp, #-40]
	add	r3, r3, #16384
	ldr	r3, [r3, #1996]
	cmp	r3, #0
	beq	.L632
	ldr	r1, [fp, #-40]
	ldr	r2, [fp, #-8]
	mov	r3, r2
	lsl	r3, r3, #3
	add	r3, r3, r2
	lsl	r3, r3, #3
	add	r3, r1, r3
	add	r3, r3, #17920
	add	r3, r3, #192
	ldr	r3, [r3]
	add	r2, r3, #7
	cmp	r3, #0
	movlt	r3, r2
	movge	r3, r3
	asr	r3, r3, #3
	mov	r0, r3
	ldr	r1, [fp, #-40]
	ldr	r2, [fp, #-8]
	mov	r3, r2
	lsl	r3, r3, #3
	add	r3, r3, r2
	lsl	r3, r3, #3
	add	r3, r1, r3
	add	r3, r3, #17920
	add	r3, r3, #220
	str	r0, [r3]
	ldr	r1, [fp, #-40]
	ldr	r2, [fp, #-8]
	mov	r3, r2
	lsl	r3, r3, #3
	add	r3, r3, r2
	lsl	r3, r3, #3
	add	r3, r1, r3
	add	r3, r3, #17920
	add	r3, r3, #196
	ldr	r3, [r3]
	add	r2, r3, #7
	cmp	r3, #0
	movlt	r3, r2
	movge	r3, r3
	asr	r3, r3, #3
	mov	r0, r3
	ldr	r1, [fp, #-40]
	ldr	r2, [fp, #-8]
	mov	r3, r2
	lsl	r3, r3, #3
	add	r3, r3, r2
	lsl	r3, r3, #3
	add	r3, r1, r3
	add	r3, r3, #17920
	add	r3, r3, #224
	str	r0, [r3]
	ldr	r1, [fp, #-40]
	ldr	r2, [fp, #-8]
	mov	r3, r2
	lsl	r3, r3, #3
	add	r3, r3, r2
	lsl	r3, r3, #3
	add	r3, r1, r3
	add	r3, r3, #17920
	add	r3, r3, #192
	ldr	r0, [r3]
	ldr	r1, [fp, #-40]
	ldr	r2, [fp, #-8]
	mov	r3, r2
	lsl	r3, r3, #3
	add	r3, r3, r2
	lsl	r3, r3, #3
	add	r3, r1, r3
	add	r3, r3, #17920
	add	r3, r3, #196
	ldr	r1, [r3]
	mov	r3, #15
	mov	r2, #2
	bl	stbi__malloc_mad3
	ldr	r1, [fp, #-40]
	ldr	r2, [fp, #-8]
	mov	r3, r2
	lsl	r3, r3, #3
	add	r3, r3, r2
	lsl	r3, r3, #3
	add	r3, r1, r3
	add	r3, r3, #17920
	add	r3, r3, #208
	str	r0, [r3]
	ldr	r1, [fp, #-40]
	ldr	r2, [fp, #-8]
	mov	r3, r2
	lsl	r3, r3, #3
	add	r3, r3, r2
	lsl	r3, r3, #3
	add	r3, r1, r3
	add	r3, r3, #17920
	add	r3, r3, #208
	ldr	r3, [r3]
	cmp	r3, #0
	bne	.L633
	ldr	r3, [fp, #-8]
	add	r3, r3, #1
	mov	r2, #0
	mov	r1, r3
	ldr	r0, [fp, #-40]
	bl	stbi__free_jpeg_components
	mov	r3, r0
	b	.L608
.L633:
	ldr	r1, [fp, #-40]
	ldr	r2, [fp, #-8]
	mov	r3, r2
	lsl	r3, r3, #3
	add	r3, r3, r2
	lsl	r3, r3, #3
	add	r3, r1, r3
	add	r3, r3, #17920
	add	r3, r3, #208
	ldr	r3, [r3]
	add	r3, r3, #15
	bic	r3, r3, #15
	mov	r0, r3
	ldr	r1, [fp, #-40]
	ldr	r2, [fp, #-8]
	mov	r3, r2
	lsl	r3, r3, #3
	add	r3, r3, r2
	lsl	r3, r3, #3
	add	r3, r1, r3
	add	r3, r3, #17920
	add	r3, r3, #216
	str	r0, [r3]
.L632:
	ldr	r3, [fp, #-8]
	add	r3, r3, #1
	str	r3, [fp, #-8]
.L630:
	ldr	r3, [fp, #-20]
	ldr	r3, [r3, #8]
	ldr	r2, [fp, #-8]
	cmp	r2, r3
	blt	.L634
	mov	r3, #1
.L608:
	mov	r0, r3
	sub	sp, fp, #4
	@ sp needed
	pop	{fp, pc}
	.size	stbi__process_frame_header, .-stbi__process_frame_header
	.align	2
	.syntax unified
	.arm
	.fpu vfpv3-d16
	.type	stbi__decode_jpeg_header, %function
stbi__decode_jpeg_header:
	@ args = 0, pretend = 0, frame = 16
	@ frame_needed = 1, uses_anonymous_args = 0
	push	{fp, lr}
	add	fp, sp, #4
	sub	sp, sp, #16
	str	r0, [fp, #-16]
	str	r1, [fp, #-20]
	ldr	r3, [fp, #-16]
	add	r3, r3, #16384
	mov	r2, r3
	mov	r3, #0
	str	r3, [r2, #2020]
	ldr	r3, [fp, #-16]
	add	r3, r3, #16384
	mov	r2, r3
	mvn	r3, #0
	str	r3, [r2, #2024]
	ldr	r3, [fp, #-16]
	add	r3, r3, #16384
	mvn	r2, #0
	strb	r2, [r3, #1988]
	ldr	r0, [fp, #-16]
	bl	stbi__get_marker
	mov	r3, r0
	str	r3, [fp, #-8]
	ldr	r3, [fp, #-8]
	cmp	r3, #216
	beq	.L636
	mov	r3, #0
	b	.L637
.L636:
	ldr	r3, [fp, #-20]
	cmp	r3, #1
	bne	.L638
	mov	r3, #1
	b	.L637
.L638:
	ldr	r0, [fp, #-16]
	bl	stbi__get_marker
	mov	r3, r0
	str	r3, [fp, #-8]
	b	.L639
.L645:
	ldr	r1, [fp, #-8]
	ldr	r0, [fp, #-16]
	bl	stbi__process_marker
	mov	r3, r0
	cmp	r3, #0
	bne	.L640
	mov	r3, #0
	b	.L637
.L640:
	ldr	r0, [fp, #-16]
	bl	stbi__get_marker
	mov	r3, r0
	str	r3, [fp, #-8]
	b	.L641
.L643:
	ldr	r3, [fp, #-16]
	ldr	r3, [r3]
	mov	r0, r3
	bl	stbi__at_eof
	mov	r3, r0
	cmp	r3, #0
	beq	.L642
	mov	r3, #0
	b	.L637
.L642:
	ldr	r0, [fp, #-16]
	bl	stbi__get_marker
	mov	r3, r0
	str	r3, [fp, #-8]
.L641:
	ldr	r3, [fp, #-8]
	cmp	r3, #255
	beq	.L643
.L639:
	ldr	r3, [fp, #-8]
	cmp	r3, #192
	beq	.L644
	ldr	r3, [fp, #-8]
	cmp	r3, #193
	beq	.L644
	ldr	r3, [fp, #-8]
	cmp	r3, #194
	bne	.L645
.L644:
	ldr	r3, [fp, #-8]
	cmp	r3, #194
	moveq	r3, #1
	movne	r3, #0
	uxtb	r3, r3
	mov	r2, r3
	ldr	r3, [fp, #-16]
	add	r3, r3, #16384
	str	r2, [r3, #1996]
	ldr	r1, [fp, #-20]
	ldr	r0, [fp, #-16]
	bl	stbi__process_frame_header
	mov	r3, r0
	cmp	r3, #0
	bne	.L646
	mov	r3, #0
	b	.L637
.L646:
	mov	r3, #1
.L637:
	mov	r0, r3
	sub	sp, fp, #4
	@ sp needed
	pop	{fp, pc}
	.size	stbi__decode_jpeg_header, .-stbi__decode_jpeg_header
	.align	2
	.syntax unified
	.arm
	.fpu vfpv3-d16
	.type	stbi__decode_jpeg_image, %function
stbi__decode_jpeg_image:
	@ args = 0, pretend = 0, frame = 24
	@ frame_needed = 1, uses_anonymous_args = 0
	push	{fp, lr}
	add	fp, sp, #4
	sub	sp, sp, #24
	str	r0, [fp, #-24]
	mov	r3, #0
	str	r3, [fp, #-8]
	b	.L648
.L649:
	ldr	r1, [fp, #-24]
	ldr	r2, [fp, #-8]
	mov	r3, r2
	lsl	r3, r3, #3
	add	r3, r3, r2
	lsl	r3, r3, #3
	add	r3, r1, r3
	add	r3, r3, #17920
	add	r3, r3, #204
	mov	r2, #0
	str	r2, [r3]
	ldr	r1, [fp, #-24]
	ldr	r2, [fp, #-8]
	mov	r3, r2
	lsl	r3, r3, #3
	add	r3, r3, r2
	lsl	r3, r3, #3
	add	r3, r1, r3
	add	r3, r3, #17920
	add	r3, r3, #208
	mov	r2, #0
	str	r2, [r3]
	ldr	r3, [fp, #-8]
	add	r3, r3, #1
	str	r3, [fp, #-8]
.L648:
	ldr	r3, [fp, #-8]
	cmp	r3, #3
	ble	.L649
	ldr	r3, [fp, #-24]
	add	r3, r3, #16384
	mov	r2, r3
	mov	r3, #0
	str	r3, [r2, #2052]
	mov	r1, #0
	ldr	r0, [fp, #-24]
	bl	stbi__decode_jpeg_header
	mov	r3, r0
	cmp	r3, #0
	bne	.L650
	mov	r3, #0
	b	.L651
.L650:
	ldr	r0, [fp, #-24]
	bl	stbi__get_marker
	mov	r3, r0
	str	r3, [fp, #-8]
	b	.L652
.L663:
	ldr	r3, [fp, #-8]
	cmp	r3, #218
	bne	.L653
	ldr	r0, [fp, #-24]
	bl	stbi__process_scan_header
	mov	r3, r0
	cmp	r3, #0
	bne	.L654
	mov	r3, #0
	b	.L651
.L654:
	ldr	r0, [fp, #-24]
	bl	stbi__parse_entropy_coded_data
	mov	r3, r0
	cmp	r3, #0
	bne	.L655
	mov	r3, #0
	b	.L651
.L655:
	ldr	r3, [fp, #-24]
	add	r3, r3, #16384
	ldrb	r3, [r3, #1988]	@ zero_extendqisi2
	cmp	r3, #255
	bne	.L659
	b	.L657
.L658:
	ldr	r3, [fp, #-24]
	ldr	r3, [r3]
	mov	r0, r3
	bl	stbi__get8
	mov	r3, r0
	str	r3, [fp, #-12]
	ldr	r3, [fp, #-12]
	cmp	r3, #255
	bne	.L657
	ldr	r3, [fp, #-24]
	ldr	r3, [r3]
	mov	r0, r3
	bl	stbi__get8
	mov	r3, r0
	mov	r2, r3
	ldr	r3, [fp, #-24]
	add	r3, r3, #16384
	strb	r2, [r3, #1988]
	b	.L659
.L657:
	ldr	r3, [fp, #-24]
	ldr	r3, [r3]
	mov	r0, r3
	bl	stbi__at_eof
	mov	r3, r0
	cmp	r3, #0
	beq	.L658
	b	.L659
.L653:
	ldr	r3, [fp, #-8]
	cmp	r3, #220
	bne	.L660
	ldr	r3, [fp, #-24]
	ldr	r3, [r3]
	mov	r0, r3
	bl	stbi__get16be
	str	r0, [fp, #-16]
	ldr	r3, [fp, #-24]
	ldr	r3, [r3]
	mov	r0, r3
	bl	stbi__get16be
	mov	r3, r0
	str	r3, [fp, #-20]
	ldr	r3, [fp, #-16]
	cmp	r3, #4
	beq	.L661
	mov	r3, #0
	b	.L651
.L661:
	ldr	r3, [fp, #-24]
	ldr	r3, [r3]
	ldr	r3, [r3, #4]
	ldr	r2, [fp, #-20]
	cmp	r2, r3
	beq	.L659
	mov	r3, #0
	b	.L651
.L660:
	ldr	r1, [fp, #-8]
	ldr	r0, [fp, #-24]
	bl	stbi__process_marker
	mov	r3, r0
	cmp	r3, #0
	bne	.L659
	mov	r3, #0
	b	.L651
.L659:
	ldr	r0, [fp, #-24]
	bl	stbi__get_marker
	mov	r3, r0
	str	r3, [fp, #-8]
.L652:
	ldr	r3, [fp, #-8]
	cmp	r3, #217
	bne	.L663
	ldr	r3, [fp, #-24]
	add	r3, r3, #16384
	ldr	r3, [r3, #1996]
	cmp	r3, #0
	beq	.L664
	ldr	r0, [fp, #-24]
	bl	stbi__jpeg_finish
.L664:
	mov	r3, #1
.L651:
	mov	r0, r3
	sub	sp, fp, #4
	@ sp needed
	pop	{fp, pc}
	.size	stbi__decode_jpeg_image, .-stbi__decode_jpeg_image
	.align	2
	.syntax unified
	.arm
	.fpu vfpv3-d16
	.type	resample_row_1, %function
resample_row_1:
	@ args = 4, pretend = 0, frame = 16
	@ frame_needed = 1, uses_anonymous_args = 0
	@ link register save eliminated.
	str	fp, [sp, #-4]!
	add	fp, sp, #0
	sub	sp, sp, #20
	str	r0, [fp, #-8]
	str	r1, [fp, #-12]
	str	r2, [fp, #-16]
	str	r3, [fp, #-20]
	ldr	r3, [fp, #-12]
	mov	r0, r3
	add	sp, fp, #0
	@ sp needed
	ldr	fp, [sp], #4
	bx	lr
	.size	resample_row_1, .-resample_row_1
	.align	2
	.syntax unified
	.arm
	.fpu vfpv3-d16
	.type	stbi__resample_row_v_2, %function
stbi__resample_row_v_2:
	@ args = 4, pretend = 0, frame = 24
	@ frame_needed = 1, uses_anonymous_args = 0
	@ link register save eliminated.
	str	fp, [sp, #-4]!
	add	fp, sp, #0
	sub	sp, sp, #28
	str	r0, [fp, #-16]
	str	r1, [fp, #-20]
	str	r2, [fp, #-24]
	str	r3, [fp, #-28]
	mov	r3, #0
	str	r3, [fp, #-8]
	b	.L668
.L669:
	ldr	r3, [fp, #-8]
	ldr	r2, [fp, #-20]
	add	r3, r2, r3
	ldrb	r3, [r3]	@ zero_extendqisi2
	mov	r2, r3
	mov	r3, r2
	lsl	r3, r3, #1
	add	r3, r3, r2
	ldr	r2, [fp, #-8]
	ldr	r1, [fp, #-24]
	add	r2, r1, r2
	ldrb	r2, [r2]	@ zero_extendqisi2
	add	r3, r3, r2
	add	r3, r3, #2
	asr	r1, r3, #2
	ldr	r3, [fp, #-8]
	ldr	r2, [fp, #-16]
	add	r3, r2, r3
	uxtb	r2, r1
	strb	r2, [r3]
	ldr	r3, [fp, #-8]
	add	r3, r3, #1
	str	r3, [fp, #-8]
.L668:
	ldr	r2, [fp, #-8]
	ldr	r3, [fp, #-28]
	cmp	r2, r3
	blt	.L669
	ldr	r3, [fp, #-16]
	mov	r0, r3
	add	sp, fp, #0
	@ sp needed
	ldr	fp, [sp], #4
	bx	lr
	.size	stbi__resample_row_v_2, .-stbi__resample_row_v_2
	.align	2
	.syntax unified
	.arm
	.fpu vfpv3-d16
	.type	stbi__resample_row_h_2, %function
stbi__resample_row_h_2:
	@ args = 4, pretend = 0, frame = 32
	@ frame_needed = 1, uses_anonymous_args = 0
	@ link register save eliminated.
	str	fp, [sp, #-4]!
	add	fp, sp, #0
	sub	sp, sp, #36
	str	r0, [fp, #-24]
	str	r1, [fp, #-28]
	str	r2, [fp, #-32]
	str	r3, [fp, #-36]
	ldr	r3, [fp, #-28]
	str	r3, [fp, #-12]
	ldr	r3, [fp, #-36]
	cmp	r3, #1
	bne	.L672
	ldr	r3, [fp, #-24]
	add	r3, r3, #1
	ldr	r2, [fp, #-12]
	ldrb	r2, [r2]	@ zero_extendqisi2
	strb	r2, [r3]
	ldrb	r2, [r3]	@ zero_extendqisi2
	ldr	r3, [fp, #-24]
	strb	r2, [r3]
	ldr	r3, [fp, #-24]
	b	.L673
.L672:
	ldr	r3, [fp, #-12]
	ldrb	r2, [r3]	@ zero_extendqisi2
	ldr	r3, [fp, #-24]
	strb	r2, [r3]
	ldr	r3, [fp, #-12]
	ldrb	r3, [r3]	@ zero_extendqisi2
	mov	r2, r3
	mov	r3, r2
	lsl	r3, r3, #1
	add	r3, r3, r2
	ldr	r2, [fp, #-12]
	add	r2, r2, #1
	ldrb	r2, [r2]	@ zero_extendqisi2
	add	r3, r3, r2
	add	r3, r3, #2
	asr	r2, r3, #2
	ldr	r3, [fp, #-24]
	add	r3, r3, #1
	uxtb	r2, r2
	strb	r2, [r3]
	mov	r3, #1
	str	r3, [fp, #-8]
	b	.L674
.L675:
	ldr	r3, [fp, #-8]
	ldr	r2, [fp, #-12]
	add	r3, r2, r3
	ldrb	r3, [r3]	@ zero_extendqisi2
	mov	r2, r3
	mov	r3, r2
	lsl	r3, r3, #1
	add	r3, r3, r2
	add	r3, r3, #2
	str	r3, [fp, #-16]
	ldr	r3, [fp, #-8]
	sub	r3, r3, #1
	ldr	r2, [fp, #-12]
	add	r3, r2, r3
	ldrb	r3, [r3]	@ zero_extendqisi2
	mov	r2, r3
	ldr	r3, [fp, #-16]
	add	r3, r2, r3
	asr	r2, r3, #2
	ldr	r3, [fp, #-8]
	lsl	r3, r3, #1
	mov	r1, r3
	ldr	r3, [fp, #-24]
	add	r3, r3, r1
	uxtb	r2, r2
	strb	r2, [r3]
	ldr	r3, [fp, #-8]
	add	r3, r3, #1
	ldr	r2, [fp, #-12]
	add	r3, r2, r3
	ldrb	r3, [r3]	@ zero_extendqisi2
	mov	r2, r3
	ldr	r3, [fp, #-16]
	add	r3, r2, r3
	asr	r1, r3, #2
	ldr	r3, [fp, #-8]
	lsl	r3, r3, #1
	add	r3, r3, #1
	ldr	r2, [fp, #-24]
	add	r3, r2, r3
	uxtb	r2, r1
	strb	r2, [r3]
	ldr	r3, [fp, #-8]
	add	r3, r3, #1
	str	r3, [fp, #-8]
.L674:
	ldr	r3, [fp, #-36]
	sub	r3, r3, #1
	ldr	r2, [fp, #-8]
	cmp	r2, r3
	blt	.L675
	ldr	r3, [fp, #-36]
	sub	r3, r3, #2
	ldr	r2, [fp, #-12]
	add	r3, r2, r3
	ldrb	r3, [r3]	@ zero_extendqisi2
	mov	r2, r3
	mov	r3, r2
	lsl	r3, r3, #1
	add	r3, r3, r2
	ldr	r2, [fp, #-36]
	sub	r2, r2, #1
	ldr	r1, [fp, #-12]
	add	r2, r1, r2
	ldrb	r2, [r2]	@ zero_extendqisi2
	add	r3, r3, r2
	add	r3, r3, #2
	asr	r2, r3, #2
	ldr	r3, [fp, #-8]
	lsl	r3, r3, #1
	mov	r1, r3
	ldr	r3, [fp, #-24]
	add	r3, r3, r1
	uxtb	r2, r2
	strb	r2, [r3]
	ldr	r3, [fp, #-36]
	sub	r3, r3, #1
	ldr	r2, [fp, #-12]
	add	r2, r2, r3
	ldr	r3, [fp, #-8]
	lsl	r3, r3, #1
	add	r3, r3, #1
	ldr	r1, [fp, #-24]
	add	r3, r1, r3
	ldrb	r2, [r2]	@ zero_extendqisi2
	strb	r2, [r3]
	ldr	r3, [fp, #-24]
.L673:
	mov	r0, r3
	add	sp, fp, #0
	@ sp needed
	ldr	fp, [sp], #4
	bx	lr
	.size	stbi__resample_row_h_2, .-stbi__resample_row_h_2
	.align	2
	.syntax unified
	.arm
	.fpu vfpv3-d16
	.type	stbi__resample_row_hv_2, %function
stbi__resample_row_hv_2:
	@ args = 4, pretend = 0, frame = 32
	@ frame_needed = 1, uses_anonymous_args = 0
	@ link register save eliminated.
	str	fp, [sp, #-4]!
	add	fp, sp, #0
	sub	sp, sp, #36
	str	r0, [fp, #-24]
	str	r1, [fp, #-28]
	str	r2, [fp, #-32]
	str	r3, [fp, #-36]
	ldr	r3, [fp, #-36]
	cmp	r3, #1
	bne	.L677
	ldr	r3, [fp, #-28]
	ldrb	r3, [r3]	@ zero_extendqisi2
	mov	r2, r3
	mov	r3, r2
	lsl	r3, r3, #1
	add	r3, r3, r2
	ldr	r2, [fp, #-32]
	ldrb	r2, [r2]	@ zero_extendqisi2
	add	r3, r3, r2
	add	r3, r3, #2
	asr	r2, r3, #2
	ldr	r3, [fp, #-24]
	add	r3, r3, #1
	uxtb	r2, r2
	strb	r2, [r3]
	ldrb	r2, [r3]	@ zero_extendqisi2
	ldr	r3, [fp, #-24]
	strb	r2, [r3]
	ldr	r3, [fp, #-24]
	b	.L678
.L677:
	ldr	r3, [fp, #-28]
	ldrb	r3, [r3]	@ zero_extendqisi2
	mov	r2, r3
	mov	r3, r2
	lsl	r3, r3, #1
	add	r3, r3, r2
	ldr	r2, [fp, #-32]
	ldrb	r2, [r2]	@ zero_extendqisi2
	add	r3, r3, r2
	str	r3, [fp, #-12]
	ldr	r3, [fp, #-12]
	add	r3, r3, #2
	asr	r3, r3, #2
	uxtb	r2, r3
	ldr	r3, [fp, #-24]
	strb	r2, [r3]
	mov	r3, #1
	str	r3, [fp, #-8]
	b	.L679
.L680:
	ldr	r3, [fp, #-12]
	str	r3, [fp, #-16]
	ldr	r3, [fp, #-8]
	ldr	r2, [fp, #-28]
	add	r3, r2, r3
	ldrb	r3, [r3]	@ zero_extendqisi2
	mov	r2, r3
	mov	r3, r2
	lsl	r3, r3, #1
	add	r3, r3, r2
	ldr	r2, [fp, #-8]
	ldr	r1, [fp, #-32]
	add	r2, r1, r2
	ldrb	r2, [r2]	@ zero_extendqisi2
	add	r3, r3, r2
	str	r3, [fp, #-12]
	ldr	r2, [fp, #-16]
	mov	r3, r2
	lsl	r3, r3, #1
	add	r2, r3, r2
	ldr	r3, [fp, #-12]
	add	r3, r2, r3
	add	r3, r3, #8
	asr	r1, r3, #4
	ldr	r3, [fp, #-8]
	lsl	r3, r3, #1
	sub	r3, r3, #1
	ldr	r2, [fp, #-24]
	add	r3, r2, r3
	uxtb	r2, r1
	strb	r2, [r3]
	ldr	r2, [fp, #-12]
	mov	r3, r2
	lsl	r3, r3, #1
	add	r2, r3, r2
	ldr	r3, [fp, #-16]
	add	r3, r2, r3
	add	r3, r3, #8
	asr	r2, r3, #4
	ldr	r3, [fp, #-8]
	lsl	r3, r3, #1
	mov	r1, r3
	ldr	r3, [fp, #-24]
	add	r3, r3, r1
	uxtb	r2, r2
	strb	r2, [r3]
	ldr	r3, [fp, #-8]
	add	r3, r3, #1
	str	r3, [fp, #-8]
.L679:
	ldr	r2, [fp, #-8]
	ldr	r3, [fp, #-36]
	cmp	r2, r3
	blt	.L680
	ldr	r3, [fp, #-12]
	add	r3, r3, #2
	asr	r1, r3, #2
	ldr	r3, [fp, #-36]
	lsl	r3, r3, #1
	sub	r3, r3, #1
	ldr	r2, [fp, #-24]
	add	r3, r2, r3
	uxtb	r2, r1
	strb	r2, [r3]
	ldr	r3, [fp, #-24]
.L678:
	mov	r0, r3
	add	sp, fp, #0
	@ sp needed
	ldr	fp, [sp], #4
	bx	lr
	.size	stbi__resample_row_hv_2, .-stbi__resample_row_hv_2
	.align	2
	.syntax unified
	.arm
	.fpu vfpv3-d16
	.type	stbi__resample_row_generic, %function
stbi__resample_row_generic:
	@ args = 4, pretend = 0, frame = 24
	@ frame_needed = 1, uses_anonymous_args = 0
	@ link register save eliminated.
	str	fp, [sp, #-4]!
	add	fp, sp, #0
	sub	sp, sp, #28
	str	r0, [fp, #-16]
	str	r1, [fp, #-20]
	str	r2, [fp, #-24]
	str	r3, [fp, #-28]
	mov	r3, #0
	str	r3, [fp, #-8]
	b	.L682
.L685:
	mov	r3, #0
	str	r3, [fp, #-12]
	b	.L683
.L684:
	ldr	r3, [fp, #-8]
	ldr	r2, [fp, #-20]
	add	r2, r2, r3
	ldr	r3, [fp, #-8]
	ldr	r1, [fp, #4]
	mul	r1, r1, r3
	ldr	r3, [fp, #-12]
	add	r3, r1, r3
	mov	r1, r3
	ldr	r3, [fp, #-16]
	add	r3, r3, r1
	ldrb	r2, [r2]	@ zero_extendqisi2
	strb	r2, [r3]
	ldr	r3, [fp, #-12]
	add	r3, r3, #1
	str	r3, [fp, #-12]
.L683:
	ldr	r2, [fp, #-12]
	ldr	r3, [fp, #4]
	cmp	r2, r3
	blt	.L684
	ldr	r3, [fp, #-8]
	add	r3, r3, #1
	str	r3, [fp, #-8]
.L682:
	ldr	r2, [fp, #-8]
	ldr	r3, [fp, #-28]
	cmp	r2, r3
	blt	.L685
	ldr	r3, [fp, #-16]
	mov	r0, r3
	add	sp, fp, #0
	@ sp needed
	ldr	fp, [sp], #4
	bx	lr
	.size	stbi__resample_row_generic, .-stbi__resample_row_generic
	.align	2
	.syntax unified
	.arm
	.fpu vfpv3-d16
	.type	stbi__YCbCr_to_RGB_row, %function
stbi__YCbCr_to_RGB_row:
	@ args = 8, pretend = 0, frame = 48
	@ frame_needed = 1, uses_anonymous_args = 0
	@ link register save eliminated.
	str	fp, [sp, #-4]!
	add	fp, sp, #0
	sub	sp, sp, #52
	str	r0, [fp, #-40]
	str	r1, [fp, #-44]
	str	r2, [fp, #-48]
	str	r3, [fp, #-52]
	mov	r3, #0
	str	r3, [fp, #-8]
	b	.L688
.L695:
	ldr	r3, [fp, #-8]
	ldr	r2, [fp, #-44]
	add	r3, r2, r3
	ldrb	r3, [r3]	@ zero_extendqisi2
	lsl	r3, r3, #20
	add	r3, r3, #524288
	str	r3, [fp, #-24]
	ldr	r3, [fp, #-8]
	ldr	r2, [fp, #-52]
	add	r3, r2, r3
	ldrb	r3, [r3]	@ zero_extendqisi2
	sub	r3, r3, #128
	str	r3, [fp, #-28]
	ldr	r3, [fp, #-8]
	ldr	r2, [fp, #-48]
	add	r3, r2, r3
	ldrb	r3, [r3]	@ zero_extendqisi2
	sub	r3, r3, #128
	str	r3, [fp, #-32]
	ldr	r2, [fp, #-28]
	mov	r3, #28416
	movt	r3, 22
	mul	r3, r3, r2
	ldr	r2, [fp, #-24]
	add	r3, r2, r3
	str	r3, [fp, #-12]
	ldr	r3, [fp, #-28]
	mov	r2, r3
	lsl	r2, r2, #1
	add	r2, r2, r3
	lsl	r3, r2, #4
	sub	r3, r3, r2
	lsl	r2, r3, #6
	add	r3, r3, r2
	lsl	r3, r3, #8
	rsb	r2, r3, #0
	ldr	r3, [fp, #-24]
	add	r3, r2, r3
	mov	r1, r3
	ldr	r2, [fp, #-32]
	mov	r3, r2
	lsl	r3, r3, #13
	sub	r3, r3, r2
	lsl	r3, r3, #2
	add	r3, r3, r2
	lsl	r3, r3, #2
	add	r3, r3, r2
	lsl	r3, r3, #6
	sub	r3, r3, r2
	lsl	r3, r3, #9
	lsr	r3, r3, #16
	lsl	r3, r3, #16
	add	r3, r1, r3
	str	r3, [fp, #-16]
	ldr	r2, [fp, #-32]
	mov	r3, #23040
	movt	r3, 28
	mul	r3, r3, r2
	ldr	r2, [fp, #-24]
	add	r3, r2, r3
	str	r3, [fp, #-20]
	ldr	r3, [fp, #-12]
	asr	r3, r3, #20
	str	r3, [fp, #-12]
	ldr	r3, [fp, #-16]
	asr	r3, r3, #20
	str	r3, [fp, #-16]
	ldr	r3, [fp, #-20]
	asr	r3, r3, #20
	str	r3, [fp, #-20]
	ldr	r3, [fp, #-12]
	cmp	r3, #255
	bls	.L689
	ldr	r3, [fp, #-12]
	cmp	r3, #0
	bge	.L690
	mov	r3, #0
	str	r3, [fp, #-12]
	b	.L689
.L690:
	mov	r3, #255
	str	r3, [fp, #-12]
.L689:
	ldr	r3, [fp, #-16]
	cmp	r3, #255
	bls	.L691
	ldr	r3, [fp, #-16]
	cmp	r3, #0
	bge	.L692
	mov	r3, #0
	str	r3, [fp, #-16]
	b	.L691
.L692:
	mov	r3, #255
	str	r3, [fp, #-16]
.L691:
	ldr	r3, [fp, #-20]
	cmp	r3, #255
	bls	.L693
	ldr	r3, [fp, #-20]
	cmp	r3, #0
	bge	.L694
	mov	r3, #0
	str	r3, [fp, #-20]
	b	.L693
.L694:
	mov	r3, #255
	str	r3, [fp, #-20]
.L693:
	ldr	r3, [fp, #-12]
	uxtb	r2, r3
	ldr	r3, [fp, #-40]
	strb	r2, [r3]
	ldr	r3, [fp, #-40]
	add	r3, r3, #1
	ldr	r2, [fp, #-16]
	uxtb	r2, r2
	strb	r2, [r3]
	ldr	r3, [fp, #-40]
	add	r3, r3, #2
	ldr	r2, [fp, #-20]
	uxtb	r2, r2
	strb	r2, [r3]
	ldr	r3, [fp, #-40]
	add	r3, r3, #3
	mvn	r2, #0
	strb	r2, [r3]
	ldr	r3, [fp, #8]
	ldr	r2, [fp, #-40]
	add	r3, r2, r3
	str	r3, [fp, #-40]
	ldr	r3, [fp, #-8]
	add	r3, r3, #1
	str	r3, [fp, #-8]
.L688:
	ldr	r2, [fp, #-8]
	ldr	r3, [fp, #4]
	cmp	r2, r3
	blt	.L695
	nop
	add	sp, fp, #0
	@ sp needed
	ldr	fp, [sp], #4
	bx	lr
	.size	stbi__YCbCr_to_RGB_row, .-stbi__YCbCr_to_RGB_row
	.align	2
	.syntax unified
	.arm
	.fpu vfpv3-d16
	.type	stbi__setup_jpeg, %function
stbi__setup_jpeg:
	@ args = 0, pretend = 0, frame = 8
	@ frame_needed = 1, uses_anonymous_args = 0
	@ link register save eliminated.
	str	fp, [sp, #-4]!
	add	fp, sp, #0
	sub	sp, sp, #12
	str	r0, [fp, #-8]
	ldr	r3, [fp, #-8]
	add	r3, r3, #16384
	mov	r2, r3
	movw	r3, #:lower16:stbi__idct_block
	movt	r3, #:upper16:stbi__idct_block
	str	r3, [r2, #2060]
	ldr	r3, [fp, #-8]
	add	r3, r3, #16384
	mov	r2, r3
	movw	r3, #:lower16:stbi__YCbCr_to_RGB_row
	movt	r3, #:upper16:stbi__YCbCr_to_RGB_row
	str	r3, [r2, #2064]
	ldr	r3, [fp, #-8]
	add	r3, r3, #16384
	mov	r2, r3
	movw	r3, #:lower16:stbi__resample_row_hv_2
	movt	r3, #:upper16:stbi__resample_row_hv_2
	str	r3, [r2, #2068]
	nop
	add	sp, fp, #0
	@ sp needed
	ldr	fp, [sp], #4
	bx	lr
	.size	stbi__setup_jpeg, .-stbi__setup_jpeg
	.align	2
	.syntax unified
	.arm
	.fpu vfpv3-d16
	.type	stbi__cleanup_jpeg, %function
stbi__cleanup_jpeg:
	@ args = 0, pretend = 0, frame = 8
	@ frame_needed = 1, uses_anonymous_args = 0
	push	{fp, lr}
	add	fp, sp, #4
	sub	sp, sp, #8
	str	r0, [fp, #-8]
	ldr	r3, [fp, #-8]
	ldr	r3, [r3]
	ldr	r3, [r3, #8]
	mov	r2, #0
	mov	r1, r3
	ldr	r0, [fp, #-8]
	bl	stbi__free_jpeg_components
	nop
	sub	sp, fp, #4
	@ sp needed
	pop	{fp, pc}
	.size	stbi__cleanup_jpeg, .-stbi__cleanup_jpeg
	.align	2
	.syntax unified
	.arm
	.fpu vfpv3-d16
	.type	stbi__blinn_8x8, %function
stbi__blinn_8x8:
	@ args = 0, pretend = 0, frame = 16
	@ frame_needed = 1, uses_anonymous_args = 0
	@ link register save eliminated.
	str	fp, [sp, #-4]!
	add	fp, sp, #0
	sub	sp, sp, #20
	mov	r3, r0
	mov	r2, r1
	strb	r3, [fp, #-13]
	mov	r3, r2
	strb	r3, [fp, #-14]
	ldrb	r3, [fp, #-13]	@ zero_extendqisi2
	ldrb	r2, [fp, #-14]	@ zero_extendqisi2
	mul	r3, r2, r3
	add	r3, r3, #128
	str	r3, [fp, #-8]
	ldr	r3, [fp, #-8]
	lsr	r2, r3, #8
	ldr	r3, [fp, #-8]
	add	r3, r2, r3
	lsr	r3, r3, #8
	uxtb	r3, r3
	mov	r0, r3
	add	sp, fp, #0
	@ sp needed
	ldr	fp, [sp], #4
	bx	lr
	.size	stbi__blinn_8x8, .-stbi__blinn_8x8
	.align	2
	.syntax unified
	.arm
	.fpu vfpv3-d16
	.type	load_jpeg_image, %function
load_jpeg_image:
	@ args = 4, pretend = 0, frame = 224
	@ frame_needed = 1, uses_anonymous_args = 0
	push	{r4, fp, lr}
	add	fp, sp, #8
	sub	sp, sp, #236
	str	r0, [fp, #-224]
	str	r1, [fp, #-228]
	str	r2, [fp, #-232]
	str	r3, [fp, #-236]
	ldr	r3, [fp, #-224]
	ldr	r3, [r3]
	mov	r2, #0
	str	r2, [r3, #8]
	ldr	r3, [fp, #4]
	cmp	r3, #0
	blt	.L701
	ldr	r3, [fp, #4]
	cmp	r3, #4
	ble	.L702
.L701:
	mov	r3, #0
	b	.L703
.L702:
	ldr	r0, [fp, #-224]
	bl	stbi__decode_jpeg_image
	mov	r3, r0
	cmp	r3, #0
	bne	.L704
	ldr	r0, [fp, #-224]
	bl	stbi__cleanup_jpeg
	mov	r3, #0
	b	.L703
.L704:
	ldr	r3, [fp, #4]
	cmp	r3, #0
	bne	.L705
	ldr	r3, [fp, #-224]
	ldr	r3, [r3]
	ldr	r3, [r3, #8]
	cmp	r3, #2
	ble	.L706
	mov	r3, #3
	b	.L708
.L706:
	mov	r3, #1
	b	.L708
.L705:
	ldr	r3, [fp, #4]
.L708:
	str	r3, [fp, #-36]
	ldr	r3, [fp, #-224]
	ldr	r3, [r3]
	ldr	r3, [r3, #8]
	cmp	r3, #3
	bne	.L709
	ldr	r3, [fp, #-224]
	add	r3, r3, #16384
	ldr	r3, [r3, #2028]
	cmp	r3, #3
	beq	.L710
	ldr	r3, [fp, #-224]
	add	r3, r3, #16384
	ldr	r3, [r3, #2024]
	cmp	r3, #0
	bne	.L709
	ldr	r3, [fp, #-224]
	add	r3, r3, #16384
	ldr	r3, [r3, #2020]
	cmp	r3, #0
	bne	.L709
.L710:
	mov	r3, #1
	b	.L711
.L709:
	mov	r3, #0
.L711:
	str	r3, [fp, #-40]
	ldr	r3, [fp, #-224]
	ldr	r3, [r3]
	ldr	r3, [r3, #8]
	cmp	r3, #3
	bne	.L712
	ldr	r3, [fp, #-36]
	cmp	r3, #2
	bgt	.L712
	ldr	r3, [fp, #-40]
	cmp	r3, #0
	bne	.L712
	mov	r3, #1
	str	r3, [fp, #-16]
	b	.L713
.L712:
	ldr	r3, [fp, #-224]
	ldr	r3, [r3]
	ldr	r3, [r3, #8]
	str	r3, [fp, #-16]
.L713:
	sub	r3, fp, #88
	mov	r2, #0
	str	r2, [r3]
	str	r2, [r3, #4]
	str	r2, [r3, #8]
	str	r2, [r3, #12]
	mov	r3, #0
	str	r3, [fp, #-20]
	b	.L714
.L722:
	sub	r2, fp, #216
	ldr	r3, [fp, #-20]
	lsl	r3, r3, #5
	add	r3, r2, r3
	str	r3, [fp, #-44]
	ldr	r3, [fp, #-224]
	ldr	r3, [r3]
	ldr	r3, [r3]
	add	r3, r3, #3
	mov	r0, r3
	bl	stbi__malloc
	ldr	r1, [fp, #-224]
	ldr	r2, [fp, #-20]
	mov	r3, r2
	lsl	r3, r3, #3
	add	r3, r3, r2
	lsl	r3, r3, #3
	add	r3, r1, r3
	add	r3, r3, #17920
	add	r3, r3, #212
	str	r0, [r3]
	ldr	r1, [fp, #-224]
	ldr	r2, [fp, #-20]
	mov	r3, r2
	lsl	r3, r3, #3
	add	r3, r3, r2
	lsl	r3, r3, #3
	add	r3, r1, r3
	add	r3, r3, #17920
	add	r3, r3, #212
	ldr	r3, [r3]
	cmp	r3, #0
	bne	.L715
	ldr	r0, [fp, #-224]
	bl	stbi__cleanup_jpeg
	mov	r3, #0
	b	.L703
.L715:
	ldr	r3, [fp, #-224]
	add	r3, r3, #16384
	ldr	r0, [r3, #1668]
	ldr	r1, [fp, #-224]
	ldr	r2, [fp, #-20]
	mov	r3, r2
	lsl	r3, r3, #3
	add	r3, r3, r2
	lsl	r3, r3, #3
	add	r3, r1, r3
	add	r3, r3, #17920
	add	r3, r3, #160
	ldr	r3, [r3]
	mov	r1, r3
	bl	__aeabi_idiv
	mov	r3, r0
	mov	r2, r3
	ldr	r3, [fp, #-44]
	str	r2, [r3, #12]
	ldr	r3, [fp, #-224]
	add	r3, r3, #16384
	ldr	r0, [r3, #1672]
	ldr	r1, [fp, #-224]
	ldr	r2, [fp, #-20]
	mov	r3, r2
	lsl	r3, r3, #3
	add	r3, r3, r2
	lsl	r3, r3, #3
	add	r3, r1, r3
	add	r3, r3, #17920
	add	r3, r3, #164
	ldr	r3, [r3]
	mov	r1, r3
	bl	__aeabi_idiv
	mov	r3, r0
	mov	r2, r3
	ldr	r3, [fp, #-44]
	str	r2, [r3, #16]
	ldr	r3, [fp, #-44]
	ldr	r3, [r3, #16]
	asr	r2, r3, #1
	ldr	r3, [fp, #-44]
	str	r2, [r3, #24]
	ldr	r3, [fp, #-224]
	ldr	r3, [r3]
	ldr	r3, [r3]
	ldr	r2, [fp, #-44]
	ldr	r2, [r2, #12]
	add	r3, r3, r2
	sub	r2, r3, #1
	ldr	r3, [fp, #-44]
	ldr	r3, [r3, #12]
	mov	r1, r3
	mov	r0, r2
	bl	__aeabi_uidiv
	mov	r3, r0
	mov	r2, r3
	ldr	r3, [fp, #-44]
	str	r2, [r3, #20]
	ldr	r3, [fp, #-44]
	mov	r2, #0
	str	r2, [r3, #28]
	ldr	r1, [fp, #-224]
	ldr	r2, [fp, #-20]
	mov	r3, r2
	lsl	r3, r3, #3
	add	r3, r3, r2
	lsl	r3, r3, #3
	add	r3, r1, r3
	add	r3, r3, #17920
	add	r3, r3, #200
	ldr	r2, [r3]
	ldr	r3, [fp, #-44]
	str	r2, [r3, #8]
	ldr	r3, [fp, #-44]
	ldr	r2, [r3, #8]
	ldr	r3, [fp, #-44]
	str	r2, [r3, #4]
	ldr	r3, [fp, #-44]
	ldr	r3, [r3, #12]
	cmp	r3, #1
	bne	.L717
	ldr	r3, [fp, #-44]
	ldr	r3, [r3, #16]
	cmp	r3, #1
	bne	.L717
	ldr	r2, [fp, #-44]
	movw	r3, #:lower16:resample_row_1
	movt	r3, #:upper16:resample_row_1
	str	r3, [r2]
	b	.L718
.L717:
	ldr	r3, [fp, #-44]
	ldr	r3, [r3, #12]
	cmp	r3, #1
	bne	.L719
	ldr	r3, [fp, #-44]
	ldr	r3, [r3, #16]
	cmp	r3, #2
	bne	.L719
	ldr	r2, [fp, #-44]
	movw	r3, #:lower16:stbi__resample_row_v_2
	movt	r3, #:upper16:stbi__resample_row_v_2
	str	r3, [r2]
	b	.L718
.L719:
	ldr	r3, [fp, #-44]
	ldr	r3, [r3, #12]
	cmp	r3, #2
	bne	.L720
	ldr	r3, [fp, #-44]
	ldr	r3, [r3, #16]
	cmp	r3, #1
	bne	.L720
	ldr	r2, [fp, #-44]
	movw	r3, #:lower16:stbi__resample_row_h_2
	movt	r3, #:upper16:stbi__resample_row_h_2
	str	r3, [r2]
	b	.L718
.L720:
	ldr	r3, [fp, #-44]
	ldr	r3, [r3, #12]
	cmp	r3, #2
	bne	.L721
	ldr	r3, [fp, #-44]
	ldr	r3, [r3, #16]
	cmp	r3, #2
	bne	.L721
	ldr	r3, [fp, #-224]
	add	r3, r3, #16384
	ldr	r2, [r3, #2068]
	ldr	r3, [fp, #-44]
	str	r2, [r3]
	b	.L718
.L721:
	ldr	r2, [fp, #-44]
	movw	r3, #:lower16:stbi__resample_row_generic
	movt	r3, #:upper16:stbi__resample_row_generic
	str	r3, [r2]
.L718:
	ldr	r3, [fp, #-20]
	add	r3, r3, #1
	str	r3, [fp, #-20]
.L714:
	ldr	r2, [fp, #-20]
	ldr	r3, [fp, #-16]
	cmp	r2, r3
	blt	.L722
	ldr	r3, [fp, #-224]
	ldr	r3, [r3]
	ldr	r3, [r3]
	mov	r1, r3
	ldr	r3, [fp, #-224]
	ldr	r3, [r3]
	ldr	r3, [r3, #4]
	mov	r2, r3
	mov	r3, #1
	ldr	r0, [fp, #-36]
	bl	stbi__malloc_mad3
	str	r0, [fp, #-48]
	ldr	r3, [fp, #-48]
	cmp	r3, #0
	bne	.L723
	ldr	r0, [fp, #-224]
	bl	stbi__cleanup_jpeg
	mov	r3, #0
	b	.L703
.L723:
	mov	r3, #0
	str	r3, [fp, #-28]
	b	.L724
.L767:
	ldr	r3, [fp, #-224]
	ldr	r3, [r3]
	ldr	r3, [r3]
	ldr	r2, [fp, #-36]
	mul	r3, r2, r3
	ldr	r2, [fp, #-28]
	mul	r3, r2, r3
	ldr	r2, [fp, #-48]
	add	r3, r2, r3
	str	r3, [fp, #-32]
	mov	r3, #0
	str	r3, [fp, #-20]
	b	.L725
.L731:
	sub	r2, fp, #216
	ldr	r3, [fp, #-20]
	lsl	r3, r3, #5
	add	r3, r2, r3
	str	r3, [fp, #-52]
	ldr	r3, [fp, #-52]
	ldr	r2, [r3, #24]
	ldr	r3, [fp, #-52]
	ldr	r3, [r3, #16]
	asr	r3, r3, #1
	cmp	r2, r3
	movge	r3, #1
	movlt	r3, #0
	uxtb	r3, r3
	str	r3, [fp, #-56]
	ldr	r3, [fp, #-52]
	ldr	r4, [r3]
	ldr	r1, [fp, #-224]
	ldr	r2, [fp, #-20]
	mov	r3, r2
	lsl	r3, r3, #3
	add	r3, r3, r2
	lsl	r3, r3, #3
	add	r3, r1, r3
	add	r3, r3, #17920
	add	r3, r3, #212
	ldr	r0, [r3]
	ldr	r3, [fp, #-56]
	cmp	r3, #0
	beq	.L726
	ldr	r3, [fp, #-52]
	ldr	r1, [r3, #8]
	b	.L727
.L726:
	ldr	r3, [fp, #-52]
	ldr	r1, [r3, #4]
.L727:
	ldr	r3, [fp, #-56]
	cmp	r3, #0
	beq	.L728
	ldr	r3, [fp, #-52]
	ldr	r2, [r3, #4]
	b	.L729
.L728:
	ldr	r3, [fp, #-52]
	ldr	r2, [r3, #8]
.L729:
	ldr	r3, [fp, #-52]
	ldr	ip, [r3, #20]
	ldr	r3, [fp, #-52]
	ldr	r3, [r3, #12]
	str	r3, [sp]
	mov	r3, ip
	blx	r4
	mov	r2, r0
	ldr	r3, [fp, #-20]
	lsl	r3, r3, #2
	sub	r1, fp, #12
	add	r3, r1, r3
	str	r2, [r3, #-76]
	ldr	r3, [fp, #-52]
	ldr	r3, [r3, #24]
	add	r2, r3, #1
	ldr	r3, [fp, #-52]
	str	r2, [r3, #24]
	ldr	r3, [fp, #-52]
	ldr	r2, [r3, #24]
	ldr	r3, [fp, #-52]
	ldr	r3, [r3, #16]
	cmp	r2, r3
	blt	.L730
	ldr	r3, [fp, #-52]
	mov	r2, #0
	str	r2, [r3, #24]
	ldr	r3, [fp, #-52]
	ldr	r2, [r3, #8]
	ldr	r3, [fp, #-52]
	str	r2, [r3, #4]
	ldr	r3, [fp, #-52]
	ldr	r3, [r3, #28]
	add	r2, r3, #1
	ldr	r3, [fp, #-52]
	str	r2, [r3, #28]
	ldr	r3, [fp, #-52]
	ldr	r1, [r3, #28]
	ldr	r0, [fp, #-224]
	ldr	r2, [fp, #-20]
	mov	r3, r2
	lsl	r3, r3, #3
	add	r3, r3, r2
	lsl	r3, r3, #3
	add	r3, r0, r3
	add	r3, r3, #17920
	add	r3, r3, #188
	ldr	r3, [r3]
	cmp	r1, r3
	bge	.L730
	ldr	r3, [fp, #-52]
	ldr	r1, [r3, #8]
	ldr	r0, [fp, #-224]
	ldr	r2, [fp, #-20]
	mov	r3, r2
	lsl	r3, r3, #3
	add	r3, r3, r2
	lsl	r3, r3, #3
	add	r3, r0, r3
	add	r3, r3, #17920
	add	r3, r3, #192
	ldr	r3, [r3]
	add	r2, r1, r3
	ldr	r3, [fp, #-52]
	str	r2, [r3, #8]
.L730:
	ldr	r3, [fp, #-20]
	add	r3, r3, #1
	str	r3, [fp, #-20]
.L725:
	ldr	r2, [fp, #-20]
	ldr	r3, [fp, #-16]
	cmp	r2, r3
	blt	.L731
	ldr	r3, [fp, #-36]
	cmp	r3, #2
	ble	.L732
	ldr	r3, [fp, #-88]
	str	r3, [fp, #-60]
	ldr	r3, [fp, #-224]
	ldr	r3, [r3]
	ldr	r3, [r3, #8]
	cmp	r3, #3
	bne	.L733
	ldr	r3, [fp, #-40]
	cmp	r3, #0
	beq	.L734
	mov	r3, #0
	str	r3, [fp, #-24]
	b	.L735
.L736:
	ldr	r2, [fp, #-60]
	ldr	r3, [fp, #-24]
	add	r3, r2, r3
	ldrb	r2, [r3]	@ zero_extendqisi2
	ldr	r3, [fp, #-32]
	strb	r2, [r3]
	ldr	r2, [fp, #-84]
	ldr	r3, [fp, #-24]
	add	r2, r2, r3
	ldr	r3, [fp, #-32]
	add	r3, r3, #1
	ldrb	r2, [r2]	@ zero_extendqisi2
	strb	r2, [r3]
	ldr	r2, [fp, #-80]
	ldr	r3, [fp, #-24]
	add	r2, r2, r3
	ldr	r3, [fp, #-32]
	add	r3, r3, #2
	ldrb	r2, [r2]	@ zero_extendqisi2
	strb	r2, [r3]
	ldr	r3, [fp, #-32]
	add	r3, r3, #3
	mvn	r2, #0
	strb	r2, [r3]
	ldr	r3, [fp, #-36]
	ldr	r2, [fp, #-32]
	add	r3, r2, r3
	str	r3, [fp, #-32]
	ldr	r3, [fp, #-24]
	add	r3, r3, #1
	str	r3, [fp, #-24]
.L735:
	ldr	r3, [fp, #-224]
	ldr	r3, [r3]
	ldr	r3, [r3]
	ldr	r2, [fp, #-24]
	cmp	r2, r3
	bcc	.L736
	b	.L749
.L734:
	ldr	r3, [fp, #-224]
	add	r3, r3, #16384
	ldr	r4, [r3, #2064]
	ldr	r2, [fp, #-84]
	ldr	r1, [fp, #-80]
	ldr	r3, [fp, #-224]
	ldr	r3, [r3]
	ldr	r3, [r3]
	mov	r0, r3
	ldr	r3, [fp, #-36]
	str	r3, [sp, #4]
	str	r0, [sp]
	mov	r3, r1
	ldr	r1, [fp, #-60]
	ldr	r0, [fp, #-32]
	blx	r4
	b	.L749
.L733:
	ldr	r3, [fp, #-224]
	ldr	r3, [r3]
	ldr	r3, [r3, #8]
	cmp	r3, #4
	bne	.L739
	ldr	r3, [fp, #-224]
	add	r3, r3, #16384
	ldr	r3, [r3, #2024]
	cmp	r3, #0
	bne	.L740
	mov	r3, #0
	str	r3, [fp, #-24]
	b	.L741
.L742:
	ldr	r2, [fp, #-76]
	ldr	r3, [fp, #-24]
	add	r3, r2, r3
	ldrb	r3, [r3]
	strb	r3, [fp, #-61]
	ldr	r2, [fp, #-88]
	ldr	r3, [fp, #-24]
	add	r3, r2, r3
	ldrb	r3, [r3]	@ zero_extendqisi2
	ldrb	r2, [fp, #-61]	@ zero_extendqisi2
	mov	r1, r2
	mov	r0, r3
	bl	stbi__blinn_8x8
	mov	r3, r0
	mov	r2, r3
	ldr	r3, [fp, #-32]
	strb	r2, [r3]
	ldr	r2, [fp, #-84]
	ldr	r3, [fp, #-24]
	add	r3, r2, r3
	ldrb	r2, [r3]	@ zero_extendqisi2
	ldr	r3, [fp, #-32]
	add	r4, r3, #1
	ldrb	r3, [fp, #-61]	@ zero_extendqisi2
	mov	r1, r3
	mov	r0, r2
	bl	stbi__blinn_8x8
	mov	r3, r0
	strb	r3, [r4]
	ldr	r2, [fp, #-80]
	ldr	r3, [fp, #-24]
	add	r3, r2, r3
	ldrb	r2, [r3]	@ zero_extendqisi2
	ldr	r3, [fp, #-32]
	add	r4, r3, #2
	ldrb	r3, [fp, #-61]	@ zero_extendqisi2
	mov	r1, r3
	mov	r0, r2
	bl	stbi__blinn_8x8
	mov	r3, r0
	strb	r3, [r4]
	ldr	r3, [fp, #-32]
	add	r3, r3, #3
	mvn	r2, #0
	strb	r2, [r3]
	ldr	r3, [fp, #-36]
	ldr	r2, [fp, #-32]
	add	r3, r2, r3
	str	r3, [fp, #-32]
	ldr	r3, [fp, #-24]
	add	r3, r3, #1
	str	r3, [fp, #-24]
.L741:
	ldr	r3, [fp, #-224]
	ldr	r3, [r3]
	ldr	r3, [r3]
	ldr	r2, [fp, #-24]
	cmp	r2, r3
	bcc	.L742
	b	.L749
.L740:
	ldr	r3, [fp, #-224]
	add	r3, r3, #16384
	ldr	r3, [r3, #2024]
	cmp	r3, #2
	bne	.L744
	ldr	r3, [fp, #-224]
	add	r3, r3, #16384
	ldr	r4, [r3, #2064]
	ldr	r2, [fp, #-84]
	ldr	r1, [fp, #-80]
	ldr	r3, [fp, #-224]
	ldr	r3, [r3]
	ldr	r3, [r3]
	mov	r0, r3
	ldr	r3, [fp, #-36]
	str	r3, [sp, #4]
	str	r0, [sp]
	mov	r3, r1
	ldr	r1, [fp, #-60]
	ldr	r0, [fp, #-32]
	blx	r4
	mov	r3, #0
	str	r3, [fp, #-24]
	b	.L745
.L746:
	ldr	r2, [fp, #-76]
	ldr	r3, [fp, #-24]
	add	r3, r2, r3
	ldrb	r3, [r3]
	strb	r3, [fp, #-62]
	ldr	r3, [fp, #-32]
	ldrb	r3, [r3]	@ zero_extendqisi2
	mvn	r3, r3
	uxtb	r3, r3
	ldrb	r2, [fp, #-62]	@ zero_extendqisi2
	mov	r1, r2
	mov	r0, r3
	bl	stbi__blinn_8x8
	mov	r3, r0
	mov	r2, r3
	ldr	r3, [fp, #-32]
	strb	r2, [r3]
	ldr	r3, [fp, #-32]
	add	r3, r3, #1
	ldrb	r3, [r3]	@ zero_extendqisi2
	mvn	r3, r3
	uxtb	r2, r3
	ldr	r3, [fp, #-32]
	add	r4, r3, #1
	ldrb	r3, [fp, #-62]	@ zero_extendqisi2
	mov	r1, r3
	mov	r0, r2
	bl	stbi__blinn_8x8
	mov	r3, r0
	strb	r3, [r4]
	ldr	r3, [fp, #-32]
	add	r3, r3, #2
	ldrb	r3, [r3]	@ zero_extendqisi2
	mvn	r3, r3
	uxtb	r2, r3
	ldr	r3, [fp, #-32]
	add	r4, r3, #2
	ldrb	r3, [fp, #-62]	@ zero_extendqisi2
	mov	r1, r3
	mov	r0, r2
	bl	stbi__blinn_8x8
	mov	r3, r0
	strb	r3, [r4]
	ldr	r3, [fp, #-36]
	ldr	r2, [fp, #-32]
	add	r3, r2, r3
	str	r3, [fp, #-32]
	ldr	r3, [fp, #-24]
	add	r3, r3, #1
	str	r3, [fp, #-24]
.L745:
	ldr	r3, [fp, #-224]
	ldr	r3, [r3]
	ldr	r3, [r3]
	ldr	r2, [fp, #-24]
	cmp	r2, r3
	bcc	.L746
	b	.L749
.L744:
	ldr	r3, [fp, #-224]
	add	r3, r3, #16384
	ldr	r4, [r3, #2064]
	ldr	r2, [fp, #-84]
	ldr	r1, [fp, #-80]
	ldr	r3, [fp, #-224]
	ldr	r3, [r3]
	ldr	r3, [r3]
	mov	r0, r3
	ldr	r3, [fp, #-36]
	str	r3, [sp, #4]
	str	r0, [sp]
	mov	r3, r1
	ldr	r1, [fp, #-60]
	ldr	r0, [fp, #-32]
	blx	r4
	b	.L749
.L739:
	mov	r3, #0
	str	r3, [fp, #-24]
	b	.L747
.L748:
	ldr	r2, [fp, #-60]
	ldr	r3, [fp, #-24]
	add	r3, r2, r3
	ldr	r2, [fp, #-32]
	add	r2, r2, #2
	ldrb	r3, [r3]	@ zero_extendqisi2
	strb	r3, [r2]
	ldr	r3, [fp, #-32]
	add	r3, r3, #1
	ldrb	r2, [r2]	@ zero_extendqisi2
	strb	r2, [r3]
	ldrb	r2, [r3]	@ zero_extendqisi2
	ldr	r3, [fp, #-32]
	strb	r2, [r3]
	ldr	r3, [fp, #-32]
	add	r3, r3, #3
	mvn	r2, #0
	strb	r2, [r3]
	ldr	r3, [fp, #-36]
	ldr	r2, [fp, #-32]
	add	r3, r2, r3
	str	r3, [fp, #-32]
	ldr	r3, [fp, #-24]
	add	r3, r3, #1
	str	r3, [fp, #-24]
.L747:
	ldr	r3, [fp, #-224]
	ldr	r3, [r3]
	ldr	r3, [r3]
	ldr	r2, [fp, #-24]
	cmp	r2, r3
	bcc	.L748
	b	.L749
.L732:
	ldr	r3, [fp, #-40]
	cmp	r3, #0
	beq	.L750
	ldr	r3, [fp, #-36]
	cmp	r3, #1
	bne	.L751
	mov	r3, #0
	str	r3, [fp, #-24]
	b	.L752
.L753:
	ldr	r2, [fp, #-88]
	ldr	r3, [fp, #-24]
	add	r3, r2, r3
	ldrb	r3, [r3]	@ zero_extendqisi2
	mov	r0, r3
	ldr	r2, [fp, #-84]
	ldr	r3, [fp, #-24]
	add	r3, r2, r3
	ldrb	r3, [r3]	@ zero_extendqisi2
	mov	r1, r3
	ldr	r2, [fp, #-80]
	ldr	r3, [fp, #-24]
	add	r3, r2, r3
	ldrb	r3, [r3]	@ zero_extendqisi2
	mov	r2, r3
	ldr	r4, [fp, #-32]
	add	r3, r4, #1
	str	r3, [fp, #-32]
	bl	stbi__compute_y
	mov	r3, r0
	strb	r3, [r4]
	ldr	r3, [fp, #-24]
	add	r3, r3, #1
	str	r3, [fp, #-24]
.L752:
	ldr	r3, [fp, #-224]
	ldr	r3, [r3]
	ldr	r3, [r3]
	ldr	r2, [fp, #-24]
	cmp	r2, r3
	bcc	.L753
	b	.L749
.L751:
	mov	r3, #0
	str	r3, [fp, #-24]
	b	.L754
.L755:
	ldr	r2, [fp, #-88]
	ldr	r3, [fp, #-24]
	add	r3, r2, r3
	ldrb	r3, [r3]	@ zero_extendqisi2
	mov	r0, r3
	ldr	r2, [fp, #-84]
	ldr	r3, [fp, #-24]
	add	r3, r2, r3
	ldrb	r3, [r3]	@ zero_extendqisi2
	mov	r1, r3
	ldr	r2, [fp, #-80]
	ldr	r3, [fp, #-24]
	add	r3, r2, r3
	ldrb	r3, [r3]	@ zero_extendqisi2
	mov	r2, r3
	bl	stbi__compute_y
	mov	r3, r0
	mov	r2, r3
	ldr	r3, [fp, #-32]
	strb	r2, [r3]
	ldr	r3, [fp, #-32]
	add	r3, r3, #1
	mvn	r2, #0
	strb	r2, [r3]
	ldr	r3, [fp, #-24]
	add	r3, r3, #1
	str	r3, [fp, #-24]
	ldr	r3, [fp, #-32]
	add	r3, r3, #2
	str	r3, [fp, #-32]
.L754:
	ldr	r3, [fp, #-224]
	ldr	r3, [r3]
	ldr	r3, [r3]
	ldr	r2, [fp, #-24]
	cmp	r2, r3
	bcc	.L755
	b	.L749
.L750:
	ldr	r3, [fp, #-224]
	ldr	r3, [r3]
	ldr	r3, [r3, #8]
	cmp	r3, #4
	bne	.L756
	ldr	r3, [fp, #-224]
	add	r3, r3, #16384
	ldr	r3, [r3, #2024]
	cmp	r3, #0
	bne	.L756
	mov	r3, #0
	str	r3, [fp, #-24]
	b	.L757
.L758:
	ldr	r2, [fp, #-76]
	ldr	r3, [fp, #-24]
	add	r3, r2, r3
	ldrb	r3, [r3]
	strb	r3, [fp, #-63]
	ldr	r2, [fp, #-88]
	ldr	r3, [fp, #-24]
	add	r3, r2, r3
	ldrb	r3, [r3]	@ zero_extendqisi2
	ldrb	r2, [fp, #-63]	@ zero_extendqisi2
	mov	r1, r2
	mov	r0, r3
	bl	stbi__blinn_8x8
	mov	r3, r0
	strb	r3, [fp, #-64]
	ldr	r2, [fp, #-84]
	ldr	r3, [fp, #-24]
	add	r3, r2, r3
	ldrb	r3, [r3]	@ zero_extendqisi2
	ldrb	r2, [fp, #-63]	@ zero_extendqisi2
	mov	r1, r2
	mov	r0, r3
	bl	stbi__blinn_8x8
	mov	r3, r0
	strb	r3, [fp, #-65]
	ldr	r2, [fp, #-80]
	ldr	r3, [fp, #-24]
	add	r3, r2, r3
	ldrb	r3, [r3]	@ zero_extendqisi2
	ldrb	r2, [fp, #-63]	@ zero_extendqisi2
	mov	r1, r2
	mov	r0, r3
	bl	stbi__blinn_8x8
	mov	r3, r0
	strb	r3, [fp, #-66]
	ldrb	r3, [fp, #-64]	@ zero_extendqisi2
	ldrb	r1, [fp, #-65]	@ zero_extendqisi2
	ldrb	r2, [fp, #-66]	@ zero_extendqisi2
	mov	r0, r3
	bl	stbi__compute_y
	mov	r3, r0
	mov	r2, r3
	ldr	r3, [fp, #-32]
	strb	r2, [r3]
	ldr	r3, [fp, #-32]
	add	r3, r3, #1
	mvn	r2, #0
	strb	r2, [r3]
	ldr	r3, [fp, #-36]
	ldr	r2, [fp, #-32]
	add	r3, r2, r3
	str	r3, [fp, #-32]
	ldr	r3, [fp, #-24]
	add	r3, r3, #1
	str	r3, [fp, #-24]
.L757:
	ldr	r3, [fp, #-224]
	ldr	r3, [r3]
	ldr	r3, [r3]
	ldr	r2, [fp, #-24]
	cmp	r2, r3
	bcc	.L758
	b	.L749
.L756:
	ldr	r3, [fp, #-224]
	ldr	r3, [r3]
	ldr	r3, [r3, #8]
	cmp	r3, #4
	bne	.L759
	ldr	r3, [fp, #-224]
	add	r3, r3, #16384
	ldr	r3, [r3, #2024]
	cmp	r3, #2
	bne	.L759
	mov	r3, #0
	str	r3, [fp, #-24]
	b	.L760
.L761:
	ldr	r2, [fp, #-88]
	ldr	r3, [fp, #-24]
	add	r3, r2, r3
	ldrb	r3, [r3]	@ zero_extendqisi2
	mvn	r3, r3
	uxtb	r0, r3
	ldr	r2, [fp, #-76]
	ldr	r3, [fp, #-24]
	add	r3, r2, r3
	ldrb	r3, [r3]	@ zero_extendqisi2
	mov	r1, r3
	bl	stbi__blinn_8x8
	mov	r3, r0
	mov	r2, r3
	ldr	r3, [fp, #-32]
	strb	r2, [r3]
	ldr	r3, [fp, #-32]
	add	r3, r3, #1
	mvn	r2, #0
	strb	r2, [r3]
	ldr	r3, [fp, #-36]
	ldr	r2, [fp, #-32]
	add	r3, r2, r3
	str	r3, [fp, #-32]
	ldr	r3, [fp, #-24]
	add	r3, r3, #1
	str	r3, [fp, #-24]
.L760:
	ldr	r3, [fp, #-224]
	ldr	r3, [r3]
	ldr	r3, [r3]
	ldr	r2, [fp, #-24]
	cmp	r2, r3
	bcc	.L761
	b	.L749
.L759:
	ldr	r3, [fp, #-88]
	str	r3, [fp, #-72]
	ldr	r3, [fp, #-36]
	cmp	r3, #1
	bne	.L762
	mov	r3, #0
	str	r3, [fp, #-24]
	b	.L763
.L764:
	ldr	r2, [fp, #-72]
	ldr	r3, [fp, #-24]
	add	r2, r2, r3
	ldr	r1, [fp, #-32]
	ldr	r3, [fp, #-24]
	add	r3, r1, r3
	ldrb	r2, [r2]	@ zero_extendqisi2
	strb	r2, [r3]
	ldr	r3, [fp, #-24]
	add	r3, r3, #1
	str	r3, [fp, #-24]
.L763:
	ldr	r3, [fp, #-224]
	ldr	r3, [r3]
	ldr	r3, [r3]
	ldr	r2, [fp, #-24]
	cmp	r2, r3
	bcc	.L764
	b	.L749
.L762:
	mov	r3, #0
	str	r3, [fp, #-24]
	b	.L765
.L766:
	ldr	r2, [fp, #-72]
	ldr	r3, [fp, #-24]
	add	r2, r2, r3
	ldr	r3, [fp, #-32]
	add	r1, r3, #1
	str	r1, [fp, #-32]
	ldrb	r2, [r2]	@ zero_extendqisi2
	strb	r2, [r3]
	ldr	r3, [fp, #-32]
	add	r2, r3, #1
	str	r2, [fp, #-32]
	mvn	r2, #0
	strb	r2, [r3]
	ldr	r3, [fp, #-24]
	add	r3, r3, #1
	str	r3, [fp, #-24]
.L765:
	ldr	r3, [fp, #-224]
	ldr	r3, [r3]
	ldr	r3, [r3]
	ldr	r2, [fp, #-24]
	cmp	r2, r3
	bcc	.L766
.L749:
	ldr	r3, [fp, #-28]
	add	r3, r3, #1
	str	r3, [fp, #-28]
.L724:
	ldr	r3, [fp, #-224]
	ldr	r3, [r3]
	ldr	r3, [r3, #4]
	ldr	r2, [fp, #-28]
	cmp	r2, r3
	bcc	.L767
	ldr	r0, [fp, #-224]
	bl	stbi__cleanup_jpeg
	ldr	r3, [fp, #-224]
	ldr	r3, [r3]
	ldr	r3, [r3]
	mov	r2, r3
	ldr	r3, [fp, #-228]
	str	r2, [r3]
	ldr	r3, [fp, #-224]
	ldr	r3, [r3]
	ldr	r3, [r3, #4]
	mov	r2, r3
	ldr	r3, [fp, #-232]
	str	r2, [r3]
	ldr	r3, [fp, #-236]
	cmp	r3, #0
	beq	.L768
	ldr	r3, [fp, #-224]
	ldr	r3, [r3]
	ldr	r3, [r3, #8]
	cmp	r3, #2
	ble	.L769
	mov	r2, #3
	b	.L770
.L769:
	mov	r2, #1
.L770:
	ldr	r3, [fp, #-236]
	str	r2, [r3]
.L768:
	ldr	r3, [fp, #-48]
.L703:
	mov	r0, r3
	sub	sp, fp, #8
	@ sp needed
	pop	{r4, fp, pc}
	.size	load_jpeg_image, .-load_jpeg_image
	.align	2
	.syntax unified
	.arm
	.fpu vfpv3-d16
	.type	stbi__jpeg_load, %function
stbi__jpeg_load:
	@ args = 8, pretend = 0, frame = 24
	@ frame_needed = 1, uses_anonymous_args = 0
	push	{fp, lr}
	add	fp, sp, #4
	sub	sp, sp, #32
	str	r0, [fp, #-16]
	str	r1, [fp, #-20]
	str	r2, [fp, #-24]
	str	r3, [fp, #-28]
	movw	r0, #18456
	bl	stbi__malloc
	str	r0, [fp, #-8]
	ldr	r3, [fp, #-8]
	ldr	r2, [fp, #-16]
	str	r2, [r3]
	ldr	r0, [fp, #-8]
	bl	stbi__setup_jpeg
	ldr	r3, [fp, #4]
	str	r3, [sp]
	ldr	r3, [fp, #-28]
	ldr	r2, [fp, #-24]
	ldr	r1, [fp, #-20]
	ldr	r0, [fp, #-8]
	bl	load_jpeg_image
	str	r0, [fp, #-12]
	ldr	r0, [fp, #-8]
	bl	free
	ldr	r3, [fp, #-12]
	mov	r0, r3
	sub	sp, fp, #4
	@ sp needed
	pop	{fp, pc}
	.size	stbi__jpeg_load, .-stbi__jpeg_load
	.align	2
	.syntax unified
	.arm
	.fpu vfpv3-d16
	.type	stbi__jpeg_test, %function
stbi__jpeg_test:
	@ args = 0, pretend = 0, frame = 16
	@ frame_needed = 1, uses_anonymous_args = 0
	push	{fp, lr}
	add	fp, sp, #4
	sub	sp, sp, #16
	str	r0, [fp, #-16]
	movw	r0, #18456
	bl	stbi__malloc
	str	r0, [fp, #-8]
	ldr	r3, [fp, #-8]
	ldr	r2, [fp, #-16]
	str	r2, [r3]
	ldr	r0, [fp, #-8]
	bl	stbi__setup_jpeg
	mov	r1, #1
	ldr	r0, [fp, #-8]
	bl	stbi__decode_jpeg_header
	str	r0, [fp, #-12]
	ldr	r0, [fp, #-16]
	bl	stbi__rewind
	ldr	r0, [fp, #-8]
	bl	free
	ldr	r3, [fp, #-12]
	mov	r0, r3
	sub	sp, fp, #4
	@ sp needed
	pop	{fp, pc}
	.size	stbi__jpeg_test, .-stbi__jpeg_test
	.align	2
	.syntax unified
	.arm
	.fpu vfpv3-d16
	.type	stbi__jpeg_info_raw, %function
stbi__jpeg_info_raw:
	@ args = 0, pretend = 0, frame = 16
	@ frame_needed = 1, uses_anonymous_args = 0
	push	{fp, lr}
	add	fp, sp, #4
	sub	sp, sp, #16
	str	r0, [fp, #-8]
	str	r1, [fp, #-12]
	str	r2, [fp, #-16]
	str	r3, [fp, #-20]
	mov	r1, #2
	ldr	r0, [fp, #-8]
	bl	stbi__decode_jpeg_header
	mov	r3, r0
	cmp	r3, #0
	bne	.L776
	ldr	r3, [fp, #-8]
	ldr	r3, [r3]
	mov	r0, r3
	bl	stbi__rewind
	mov	r3, #0
	b	.L777
.L776:
	ldr	r3, [fp, #-12]
	cmp	r3, #0
	beq	.L778
	ldr	r3, [fp, #-8]
	ldr	r3, [r3]
	ldr	r3, [r3]
	mov	r2, r3
	ldr	r3, [fp, #-12]
	str	r2, [r3]
.L778:
	ldr	r3, [fp, #-16]
	cmp	r3, #0
	beq	.L779
	ldr	r3, [fp, #-8]
	ldr	r3, [r3]
	ldr	r3, [r3, #4]
	mov	r2, r3
	ldr	r3, [fp, #-16]
	str	r2, [r3]
.L779:
	ldr	r3, [fp, #-20]
	cmp	r3, #0
	beq	.L780
	ldr	r3, [fp, #-8]
	ldr	r3, [r3]
	ldr	r3, [r3, #8]
	cmp	r3, #2
	ble	.L781
	mov	r2, #3
	b	.L782
.L781:
	mov	r2, #1
.L782:
	ldr	r3, [fp, #-20]
	str	r2, [r3]
.L780:
	mov	r3, #1
.L777:
	mov	r0, r3
	sub	sp, fp, #4
	@ sp needed
	pop	{fp, pc}
	.size	stbi__jpeg_info_raw, .-stbi__jpeg_info_raw
	.align	2
	.syntax unified
	.arm
	.fpu vfpv3-d16
	.type	stbi__jpeg_info, %function
stbi__jpeg_info:
	@ args = 0, pretend = 0, frame = 24
	@ frame_needed = 1, uses_anonymous_args = 0
	push	{fp, lr}
	add	fp, sp, #4
	sub	sp, sp, #24
	str	r0, [fp, #-16]
	str	r1, [fp, #-20]
	str	r2, [fp, #-24]
	str	r3, [fp, #-28]
	movw	r0, #18456
	bl	stbi__malloc
	str	r0, [fp, #-8]
	ldr	r3, [fp, #-8]
	ldr	r2, [fp, #-16]
	str	r2, [r3]
	ldr	r3, [fp, #-28]
	ldr	r2, [fp, #-24]
	ldr	r1, [fp, #-20]
	ldr	r0, [fp, #-8]
	bl	stbi__jpeg_info_raw
	str	r0, [fp, #-12]
	ldr	r0, [fp, #-8]
	bl	free
	ldr	r3, [fp, #-12]
	mov	r0, r3
	sub	sp, fp, #4
	@ sp needed
	pop	{fp, pc}
	.size	stbi__jpeg_info, .-stbi__jpeg_info
	.align	2
	.syntax unified
	.arm
	.fpu vfpv3-d16
	.type	stbi__bitreverse16, %function
stbi__bitreverse16:
	@ args = 0, pretend = 0, frame = 8
	@ frame_needed = 1, uses_anonymous_args = 0
	@ link register save eliminated.
	str	fp, [sp, #-4]!
	add	fp, sp, #0
	sub	sp, sp, #12
	str	r0, [fp, #-8]
	ldr	r3, [fp, #-8]
	asr	r3, r3, #1
	movw	r2, #21845
	and	r2, r2, r3
	ldr	r3, [fp, #-8]
	lsl	r1, r3, #1
	movw	r3, #43690
	and	r3, r3, r1
	orr	r3, r2, r3
	str	r3, [fp, #-8]
	ldr	r3, [fp, #-8]
	asr	r3, r3, #2
	movw	r2, #13107
	and	r2, r2, r3
	ldr	r3, [fp, #-8]
	lsl	r1, r3, #2
	movw	r3, #52428
	and	r3, r3, r1
	orr	r3, r2, r3
	str	r3, [fp, #-8]
	ldr	r3, [fp, #-8]
	asr	r3, r3, #4
	movw	r2, #3855
	and	r2, r2, r3
	ldr	r3, [fp, #-8]
	lsl	r1, r3, #4
	movw	r3, #61680
	and	r3, r3, r1
	orr	r3, r2, r3
	str	r3, [fp, #-8]
	ldr	r3, [fp, #-8]
	asr	r3, r3, #8
	uxtb	r2, r3
	ldr	r3, [fp, #-8]
	lsl	r3, r3, #8
	uxth	r3, r3
	orr	r3, r2, r3
	str	r3, [fp, #-8]
	ldr	r3, [fp, #-8]
	mov	r0, r3
	add	sp, fp, #0
	@ sp needed
	ldr	fp, [sp], #4
	bx	lr
	.size	stbi__bitreverse16, .-stbi__bitreverse16
	.align	2
	.syntax unified
	.arm
	.fpu vfpv3-d16
	.type	stbi__bit_reverse, %function
stbi__bit_reverse:
	@ args = 0, pretend = 0, frame = 8
	@ frame_needed = 1, uses_anonymous_args = 0
	push	{fp, lr}
	add	fp, sp, #4
	sub	sp, sp, #8
	str	r0, [fp, #-8]
	str	r1, [fp, #-12]
	ldr	r0, [fp, #-8]
	bl	stbi__bitreverse16
	mov	r2, r0
	ldr	r3, [fp, #-12]
	rsb	r3, r3, #16
	asr	r3, r2, r3
	mov	r0, r3
	sub	sp, fp, #4
	@ sp needed
	pop	{fp, pc}
	.size	stbi__bit_reverse, .-stbi__bit_reverse
	.align	2
	.syntax unified
	.arm
	.fpu vfpv3-d16
	.type	stbi__zbuild_huffman, %function
stbi__zbuild_huffman:
	@ args = 0, pretend = 0, frame = 176
	@ frame_needed = 1, uses_anonymous_args = 0
	push	{fp, lr}
	add	fp, sp, #4
	sub	sp, sp, #176
	str	r0, [fp, #-168]
	str	r1, [fp, #-172]
	str	r2, [fp, #-176]
	mov	r3, #0
	str	r3, [fp, #-12]
	sub	r3, fp, #164
	mov	r2, #68
	mov	r1, #0
	mov	r0, r3
	bl	memset
	ldr	r3, [fp, #-168]
	mov	r2, #1024
	mov	r1, #0
	mov	r0, r3
	bl	memset
	mov	r3, #0
	str	r3, [fp, #-8]
	b	.L790
.L791:
	ldr	r3, [fp, #-8]
	ldr	r2, [fp, #-172]
	add	r3, r2, r3
	ldrb	r3, [r3]	@ zero_extendqisi2
	mov	r2, r3
	lsl	r3, r2, #2
	sub	r1, fp, #4
	add	r3, r1, r3
	ldr	r3, [r3, #-160]
	add	r1, r3, #1
	lsl	r3, r2, #2
	sub	r2, fp, #4
	add	r3, r2, r3
	str	r1, [r3, #-160]
	ldr	r3, [fp, #-8]
	add	r3, r3, #1
	str	r3, [fp, #-8]
.L790:
	ldr	r2, [fp, #-8]
	ldr	r3, [fp, #-176]
	cmp	r2, r3
	blt	.L791
	mov	r3, #0
	str	r3, [fp, #-164]
	mov	r3, #1
	str	r3, [fp, #-8]
	b	.L792
.L795:
	ldr	r3, [fp, #-8]
	lsl	r3, r3, #2
	sub	r2, fp, #4
	add	r3, r2, r3
	ldr	r2, [r3, #-160]
	mov	r1, #1
	ldr	r3, [fp, #-8]
	lsl	r3, r1, r3
	cmp	r2, r3
	ble	.L793
	mov	r3, #0
	b	.L805
.L793:
	ldr	r3, [fp, #-8]
	add	r3, r3, #1
	str	r3, [fp, #-8]
.L792:
	ldr	r3, [fp, #-8]
	cmp	r3, #15
	ble	.L795
	mov	r3, #0
	str	r3, [fp, #-16]
	mov	r3, #1
	str	r3, [fp, #-8]
	b	.L796
.L798:
	ldr	r3, [fp, #-8]
	lsl	r3, r3, #2
	sub	r2, fp, #4
	add	r3, r2, r3
	ldr	r2, [fp, #-16]
	str	r2, [r3, #-92]
	ldr	r3, [fp, #-16]
	uxth	r2, r3
	ldr	r1, [fp, #-168]
	ldr	r3, [fp, #-8]
	add	r3, r3, #512
	lsl	r3, r3, #1
	add	r3, r1, r3
	strh	r2, [r3]	@ movhi
	ldr	r3, [fp, #-12]
	uxth	r2, r3
	ldr	r1, [fp, #-168]
	ldr	r3, [fp, #-8]
	add	r3, r3, #560
	lsl	r3, r3, #1
	add	r3, r1, r3
	add	r3, r3, #4
	strh	r2, [r3]	@ movhi
	ldr	r3, [fp, #-8]
	lsl	r3, r3, #2
	sub	r2, fp, #4
	add	r3, r2, r3
	ldr	r3, [r3, #-160]
	ldr	r2, [fp, #-16]
	add	r3, r2, r3
	str	r3, [fp, #-16]
	ldr	r3, [fp, #-8]
	lsl	r3, r3, #2
	sub	r2, fp, #4
	add	r3, r2, r3
	ldr	r3, [r3, #-160]
	cmp	r3, #0
	beq	.L797
	mov	r2, #1
	ldr	r3, [fp, #-8]
	lsl	r3, r2, r3
	ldr	r2, [fp, #-16]
	cmp	r2, r3
	ble	.L797
	mov	r3, #0
	b	.L805
.L797:
	ldr	r3, [fp, #-8]
	rsb	r3, r3, #16
	ldr	r2, [fp, #-16]
	lsl	r1, r2, r3
	ldr	r3, [fp, #-168]
	ldr	r2, [fp, #-8]
	add	r2, r2, #264
	str	r1, [r3, r2, lsl #2]
	ldr	r3, [fp, #-16]
	lsl	r3, r3, #1
	str	r3, [fp, #-16]
	ldr	r3, [fp, #-8]
	lsl	r3, r3, #2
	sub	r2, fp, #4
	add	r3, r2, r3
	ldr	r3, [r3, #-160]
	ldr	r2, [fp, #-12]
	add	r3, r2, r3
	str	r3, [fp, #-12]
	ldr	r3, [fp, #-8]
	add	r3, r3, #1
	str	r3, [fp, #-8]
.L796:
	ldr	r3, [fp, #-8]
	cmp	r3, #15
	ble	.L798
	ldr	r3, [fp, #-168]
	mov	r2, #65536
	str	r2, [r3, #1120]
	mov	r3, #0
	str	r3, [fp, #-8]
	b	.L799
.L804:
	ldr	r3, [fp, #-8]
	ldr	r2, [fp, #-172]
	add	r3, r2, r3
	ldrb	r3, [r3]	@ zero_extendqisi2
	str	r3, [fp, #-24]
	ldr	r3, [fp, #-24]
	cmp	r3, #0
	beq	.L800
	ldr	r3, [fp, #-24]
	lsl	r3, r3, #2
	sub	r2, fp, #4
	add	r3, r2, r3
	ldr	r3, [r3, #-92]
	ldr	r1, [fp, #-168]
	ldr	r2, [fp, #-24]
	add	r2, r2, #512
	lsl	r2, r2, #1
	add	r2, r1, r2
	ldrh	r2, [r2]
	sub	r3, r3, r2
	ldr	r1, [fp, #-168]
	ldr	r2, [fp, #-24]
	add	r2, r2, #560
	lsl	r2, r2, #1
	add	r2, r1, r2
	add	r2, r2, #4
	ldrh	r2, [r2]
	add	r3, r3, r2
	str	r3, [fp, #-28]
	ldr	r3, [fp, #-24]
	lsl	r3, r3, #9
	sxth	r2, r3
	ldr	r3, [fp, #-8]
	sxth	r3, r3
	orr	r3, r2, r3
	sxth	r3, r3
	strh	r3, [fp, #-30]	@ movhi
	ldr	r3, [fp, #-24]
	uxtb	r1, r3
	ldr	r2, [fp, #-168]
	ldr	r3, [fp, #-28]
	add	r3, r2, r3
	add	r3, r3, #1152
	add	r3, r3, #4
	mov	r2, r1
	strb	r2, [r3]
	ldr	r3, [fp, #-8]
	uxth	r2, r3
	ldr	r1, [fp, #-168]
	ldr	r3, [fp, #-28]
	add	r3, r3, #720
	lsl	r3, r3, #1
	add	r3, r1, r3
	add	r3, r3, #4
	strh	r2, [r3]	@ movhi
	ldr	r3, [fp, #-24]
	cmp	r3, #9
	bgt	.L801
	ldr	r3, [fp, #-24]
	lsl	r3, r3, #2
	sub	r2, fp, #4
	add	r3, r2, r3
	ldr	r3, [r3, #-92]
	ldr	r1, [fp, #-24]
	mov	r0, r3
	bl	stbi__bit_reverse
	str	r0, [fp, #-20]
	b	.L802
.L803:
	ldr	r2, [fp, #-168]
	ldr	r3, [fp, #-20]
	lsl	r3, r3, #1
	add	r3, r2, r3
	ldrh	r2, [fp, #-30]	@ movhi
	strh	r2, [r3]	@ movhi
	mov	r2, #1
	ldr	r3, [fp, #-24]
	lsl	r3, r2, r3
	ldr	r2, [fp, #-20]
	add	r3, r2, r3
	str	r3, [fp, #-20]
.L802:
	ldr	r3, [fp, #-20]
	cmp	r3, #512
	blt	.L803
.L801:
	ldr	r3, [fp, #-24]
	lsl	r3, r3, #2
	sub	r2, fp, #4
	add	r3, r2, r3
	ldr	r3, [r3, #-92]
	add	r2, r3, #1
	ldr	r3, [fp, #-24]
	lsl	r3, r3, #2
	sub	r1, fp, #4
	add	r3, r1, r3
	str	r2, [r3, #-92]
.L800:
	ldr	r3, [fp, #-8]
	add	r3, r3, #1
	str	r3, [fp, #-8]
.L799:
	ldr	r2, [fp, #-8]
	ldr	r3, [fp, #-176]
	cmp	r2, r3
	blt	.L804
	mov	r3, #1
.L805:
	mov	r0, r3
	sub	sp, fp, #4
	@ sp needed
	pop	{fp, pc}
	.size	stbi__zbuild_huffman, .-stbi__zbuild_huffman
	.align	2
	.syntax unified
	.arm
	.fpu vfpv3-d16
	.type	stbi__zget8, %function
stbi__zget8:
	@ args = 0, pretend = 0, frame = 8
	@ frame_needed = 1, uses_anonymous_args = 0
	@ link register save eliminated.
	str	fp, [sp, #-4]!
	add	fp, sp, #0
	sub	sp, sp, #12
	str	r0, [fp, #-8]
	ldr	r3, [fp, #-8]
	ldr	r2, [r3]
	ldr	r3, [fp, #-8]
	ldr	r3, [r3, #4]
	cmp	r2, r3
	bcc	.L807
	mov	r3, #0
	b	.L808
.L807:
	ldr	r3, [fp, #-8]
	ldr	r3, [r3]
	add	r1, r3, #1
	ldr	r2, [fp, #-8]
	str	r1, [r2]
	ldrb	r3, [r3]	@ zero_extendqisi2
.L808:
	mov	r0, r3
	add	sp, fp, #0
	@ sp needed
	ldr	fp, [sp], #4
	bx	lr
	.size	stbi__zget8, .-stbi__zget8
	.align	2
	.syntax unified
	.arm
	.fpu vfpv3-d16
	.type	stbi__fill_bits, %function
stbi__fill_bits:
	@ args = 0, pretend = 0, frame = 8
	@ frame_needed = 1, uses_anonymous_args = 0
	push	{fp, lr}
	add	fp, sp, #4
	sub	sp, sp, #8
	str	r0, [fp, #-8]
.L810:
	ldr	r0, [fp, #-8]
	bl	stbi__zget8
	mov	r3, r0
	mov	r2, r3
	ldr	r3, [fp, #-8]
	ldr	r3, [r3, #8]
	lsl	r2, r2, r3
	ldr	r3, [fp, #-8]
	ldr	r3, [r3, #12]
	orr	r2, r2, r3
	ldr	r3, [fp, #-8]
	str	r2, [r3, #12]
	ldr	r3, [fp, #-8]
	ldr	r3, [r3, #8]
	add	r2, r3, #8
	ldr	r3, [fp, #-8]
	str	r2, [r3, #8]
	ldr	r3, [fp, #-8]
	ldr	r3, [r3, #8]
	cmp	r3, #24
	ble	.L810
	nop
	sub	sp, fp, #4
	@ sp needed
	pop	{fp, pc}
	.size	stbi__fill_bits, .-stbi__fill_bits
	.align	2
	.syntax unified
	.arm
	.fpu vfpv3-d16
	.type	stbi__zreceive, %function
stbi__zreceive:
	@ args = 0, pretend = 0, frame = 16
	@ frame_needed = 1, uses_anonymous_args = 0
	push	{fp, lr}
	add	fp, sp, #4
	sub	sp, sp, #16
	str	r0, [fp, #-16]
	str	r1, [fp, #-20]
	ldr	r3, [fp, #-16]
	ldr	r3, [r3, #8]
	ldr	r2, [fp, #-20]
	cmp	r2, r3
	ble	.L812
	ldr	r0, [fp, #-16]
	bl	stbi__fill_bits
.L812:
	ldr	r3, [fp, #-16]
	ldr	r3, [r3, #12]
	mov	r1, #1
	ldr	r2, [fp, #-20]
	lsl	r2, r1, r2
	sub	r2, r2, #1
	and	r3, r3, r2
	str	r3, [fp, #-8]
	ldr	r3, [fp, #-16]
	ldr	r2, [r3, #12]
	ldr	r3, [fp, #-20]
	lsr	r2, r2, r3
	ldr	r3, [fp, #-16]
	str	r2, [r3, #12]
	ldr	r3, [fp, #-16]
	ldr	r2, [r3, #8]
	ldr	r3, [fp, #-20]
	sub	r2, r2, r3
	ldr	r3, [fp, #-16]
	str	r2, [r3, #8]
	ldr	r3, [fp, #-8]
	mov	r0, r3
	sub	sp, fp, #4
	@ sp needed
	pop	{fp, pc}
	.size	stbi__zreceive, .-stbi__zreceive
	.align	2
	.syntax unified
	.arm
	.fpu vfpv3-d16
	.type	stbi__zhuffman_decode_slowpath, %function
stbi__zhuffman_decode_slowpath:
	@ args = 0, pretend = 0, frame = 24
	@ frame_needed = 1, uses_anonymous_args = 0
	push	{fp, lr}
	add	fp, sp, #4
	sub	sp, sp, #24
	str	r0, [fp, #-24]
	str	r1, [fp, #-28]
	ldr	r3, [fp, #-24]
	ldr	r3, [r3, #12]
	mov	r1, #16
	mov	r0, r3
	bl	stbi__bit_reverse
	str	r0, [fp, #-12]
	mov	r3, #10
	str	r3, [fp, #-8]
.L817:
	ldr	r3, [fp, #-28]
	ldr	r2, [fp, #-8]
	add	r2, r2, #264
	ldr	r3, [r3, r2, lsl #2]
	ldr	r2, [fp, #-12]
	cmp	r2, r3
	blt	.L821
	ldr	r3, [fp, #-8]
	add	r3, r3, #1
	str	r3, [fp, #-8]
	b	.L817
.L821:
	nop
	ldr	r3, [fp, #-8]
	cmp	r3, #16
	bne	.L818
	mvn	r3, #0
	b	.L819
.L818:
	ldr	r3, [fp, #-8]
	rsb	r3, r3, #16
	ldr	r2, [fp, #-12]
	asr	r3, r2, r3
	ldr	r1, [fp, #-28]
	ldr	r2, [fp, #-8]
	add	r2, r2, #512
	lsl	r2, r2, #1
	add	r2, r1, r2
	ldrh	r2, [r2]
	sub	r3, r3, r2
	ldr	r1, [fp, #-28]
	ldr	r2, [fp, #-8]
	add	r2, r2, #560
	lsl	r2, r2, #1
	add	r2, r1, r2
	add	r2, r2, #4
	ldrh	r2, [r2]
	add	r3, r3, r2
	str	r3, [fp, #-16]
	ldr	r3, [fp, #-24]
	ldr	r2, [r3, #12]
	ldr	r3, [fp, #-8]
	lsr	r2, r2, r3
	ldr	r3, [fp, #-24]
	str	r2, [r3, #12]
	ldr	r3, [fp, #-24]
	ldr	r2, [r3, #8]
	ldr	r3, [fp, #-8]
	sub	r2, r2, r3
	ldr	r3, [fp, #-24]
	str	r2, [r3, #8]
	ldr	r2, [fp, #-28]
	ldr	r3, [fp, #-16]
	add	r3, r3, #720
	lsl	r3, r3, #1
	add	r3, r2, r3
	add	r3, r3, #4
	ldrh	r3, [r3]
.L819:
	mov	r0, r3
	sub	sp, fp, #4
	@ sp needed
	pop	{fp, pc}
	.size	stbi__zhuffman_decode_slowpath, .-stbi__zhuffman_decode_slowpath
	.align	2
	.syntax unified
	.arm
	.fpu vfpv3-d16
	.type	stbi__zhuffman_decode, %function
stbi__zhuffman_decode:
	@ args = 0, pretend = 0, frame = 16
	@ frame_needed = 1, uses_anonymous_args = 0
	push	{fp, lr}
	add	fp, sp, #4
	sub	sp, sp, #16
	str	r0, [fp, #-16]
	str	r1, [fp, #-20]
	ldr	r3, [fp, #-16]
	ldr	r3, [r3, #8]
	cmp	r3, #15
	bgt	.L823
	ldr	r0, [fp, #-16]
	bl	stbi__fill_bits
.L823:
	ldr	r3, [fp, #-16]
	ldr	r3, [r3, #12]
	ubfx	r3, r3, #0, #9
	ldr	r2, [fp, #-20]
	lsl	r3, r3, #1
	add	r3, r2, r3
	ldrh	r3, [r3]
	str	r3, [fp, #-8]
	ldr	r3, [fp, #-8]
	cmp	r3, #0
	beq	.L824
	ldr	r3, [fp, #-8]
	asr	r3, r3, #9
	str	r3, [fp, #-12]
	ldr	r3, [fp, #-16]
	ldr	r2, [r3, #12]
	ldr	r3, [fp, #-12]
	lsr	r2, r2, r3
	ldr	r3, [fp, #-16]
	str	r2, [r3, #12]
	ldr	r3, [fp, #-16]
	ldr	r2, [r3, #8]
	ldr	r3, [fp, #-12]
	sub	r2, r2, r3
	ldr	r3, [fp, #-16]
	str	r2, [r3, #8]
	ldr	r3, [fp, #-8]
	ubfx	r3, r3, #0, #9
	b	.L825
.L824:
	ldr	r1, [fp, #-20]
	ldr	r0, [fp, #-16]
	bl	stbi__zhuffman_decode_slowpath
	mov	r3, r0
.L825:
	mov	r0, r3
	sub	sp, fp, #4
	@ sp needed
	pop	{fp, pc}
	.size	stbi__zhuffman_decode, .-stbi__zhuffman_decode
	.align	2
	.syntax unified
	.arm
	.fpu vfpv3-d16
	.type	stbi__zexpand, %function
stbi__zexpand:
	@ args = 0, pretend = 0, frame = 32
	@ frame_needed = 1, uses_anonymous_args = 0
	push	{fp, lr}
	add	fp, sp, #4
	sub	sp, sp, #32
	str	r0, [fp, #-24]
	str	r1, [fp, #-28]
	str	r2, [fp, #-32]
	ldr	r3, [fp, #-24]
	ldr	r2, [fp, #-28]
	str	r2, [r3, #16]
	ldr	r3, [fp, #-24]
	ldr	r3, [r3, #28]
	cmp	r3, #0
	bne	.L827
	mov	r3, #0
	b	.L828
.L827:
	ldr	r3, [fp, #-24]
	ldr	r2, [r3, #16]
	ldr	r3, [fp, #-24]
	ldr	r3, [r3, #20]
	sub	r3, r2, r3
	str	r3, [fp, #-12]
	ldr	r3, [fp, #-24]
	ldr	r2, [r3, #24]
	ldr	r3, [fp, #-24]
	ldr	r3, [r3, #20]
	sub	r3, r2, r3
	str	r3, [fp, #-16]
	ldr	r3, [fp, #-16]
	str	r3, [fp, #-8]
	b	.L829
.L830:
	ldr	r3, [fp, #-8]
	lsl	r3, r3, #1
	str	r3, [fp, #-8]
.L829:
	ldr	r2, [fp, #-12]
	ldr	r3, [fp, #-32]
	add	r3, r2, r3
	ldr	r2, [fp, #-8]
	cmp	r2, r3
	blt	.L830
	ldr	r3, [fp, #-24]
	ldr	r3, [r3, #20]
	ldr	r2, [fp, #-8]
	mov	r1, r2
	mov	r0, r3
	bl	realloc
	str	r0, [fp, #-20]
	ldr	r3, [fp, #-20]
	cmp	r3, #0
	bne	.L831
	mov	r3, #0
	b	.L828
.L831:
	ldr	r3, [fp, #-24]
	ldr	r2, [fp, #-20]
	str	r2, [r3, #20]
	ldr	r3, [fp, #-12]
	ldr	r2, [fp, #-20]
	add	r2, r2, r3
	ldr	r3, [fp, #-24]
	str	r2, [r3, #16]
	ldr	r3, [fp, #-8]
	ldr	r2, [fp, #-20]
	add	r2, r2, r3
	ldr	r3, [fp, #-24]
	str	r2, [r3, #24]
	mov	r3, #1
.L828:
	mov	r0, r3
	sub	sp, fp, #4
	@ sp needed
	pop	{fp, pc}
	.size	stbi__zexpand, .-stbi__zexpand
	.section	.rodata
	.align	2
	.type	stbi__zlength_base, %object
	.size	stbi__zlength_base, 124
stbi__zlength_base:
	.word	3
	.word	4
	.word	5
	.word	6
	.word	7
	.word	8
	.word	9
	.word	10
	.word	11
	.word	13
	.word	15
	.word	17
	.word	19
	.word	23
	.word	27
	.word	31
	.word	35
	.word	43
	.word	51
	.word	59
	.word	67
	.word	83
	.word	99
	.word	115
	.word	131
	.word	163
	.word	195
	.word	227
	.word	258
	.word	0
	.word	0
	.align	2
	.type	stbi__zlength_extra, %object
	.size	stbi__zlength_extra, 124
stbi__zlength_extra:
	.word	0
	.word	0
	.word	0
	.word	0
	.word	0
	.word	0
	.word	0
	.word	0
	.word	1
	.word	1
	.word	1
	.word	1
	.word	2
	.word	2
	.word	2
	.word	2
	.word	3
	.word	3
	.word	3
	.word	3
	.word	4
	.word	4
	.word	4
	.word	4
	.word	5
	.word	5
	.word	5
	.word	5
	.word	0
	.word	0
	.word	0
	.align	2
	.type	stbi__zdist_base, %object
	.size	stbi__zdist_base, 128
stbi__zdist_base:
	.word	1
	.word	2
	.word	3
	.word	4
	.word	5
	.word	7
	.word	9
	.word	13
	.word	17
	.word	25
	.word	33
	.word	49
	.word	65
	.word	97
	.word	129
	.word	193
	.word	257
	.word	385
	.word	513
	.word	769
	.word	1025
	.word	1537
	.word	2049
	.word	3073
	.word	4097
	.word	6145
	.word	8193
	.word	12289
	.word	16385
	.word	24577
	.word	0
	.word	0
	.align	2
	.type	stbi__zdist_extra, %object
	.size	stbi__zdist_extra, 128
stbi__zdist_extra:
	.word	0
	.word	0
	.word	0
	.word	0
	.word	1
	.word	1
	.word	2
	.word	2
	.word	3
	.word	3
	.word	4
	.word	4
	.word	5
	.word	5
	.word	6
	.word	6
	.word	7
	.word	7
	.word	8
	.word	8
	.word	9
	.word	9
	.word	10
	.word	10
	.word	11
	.word	11
	.word	12
	.word	12
	.word	13
	.word	13
	.space	8
	.text
	.align	2
	.syntax unified
	.arm
	.fpu vfpv3-d16
	.type	stbi__parse_huffman_block, %function
stbi__parse_huffman_block:
	@ args = 0, pretend = 0, frame = 32
	@ frame_needed = 1, uses_anonymous_args = 0
	push	{fp, lr}
	add	fp, sp, #4
	sub	sp, sp, #32
	str	r0, [fp, #-32]
	ldr	r3, [fp, #-32]
	ldr	r3, [r3, #16]
	str	r3, [fp, #-8]
.L850:
	ldr	r3, [fp, #-32]
	add	r3, r3, #32
	mov	r1, r3
	ldr	r0, [fp, #-32]
	bl	stbi__zhuffman_decode
	str	r0, [fp, #-24]
	ldr	r3, [fp, #-24]
	cmp	r3, #255
	bgt	.L833
	ldr	r3, [fp, #-24]
	cmp	r3, #0
	bge	.L834
	mov	r3, #0
	b	.L835
.L834:
	ldr	r3, [fp, #-32]
	ldr	r3, [r3, #24]
	ldr	r2, [fp, #-8]
	cmp	r2, r3
	bcc	.L836
	mov	r2, #1
	ldr	r1, [fp, #-8]
	ldr	r0, [fp, #-32]
	bl	stbi__zexpand
	mov	r3, r0
	cmp	r3, #0
	bne	.L837
	mov	r3, #0
	b	.L835
.L837:
	ldr	r3, [fp, #-32]
	ldr	r3, [r3, #16]
	str	r3, [fp, #-8]
.L836:
	ldr	r3, [fp, #-8]
	add	r2, r3, #1
	str	r2, [fp, #-8]
	ldr	r2, [fp, #-24]
	uxtb	r2, r2
	strb	r2, [r3]
	b	.L850
.L833:
	ldr	r3, [fp, #-24]
	cmp	r3, #256
	bne	.L839
	ldr	r3, [fp, #-32]
	ldr	r2, [fp, #-8]
	str	r2, [r3, #16]
	mov	r3, #1
	b	.L835
.L839:
	ldr	r3, [fp, #-24]
	sub	r3, r3, #256
	sub	r3, r3, #1
	str	r3, [fp, #-24]
	movw	r3, #:lower16:stbi__zlength_base
	movt	r3, #:upper16:stbi__zlength_base
	ldr	r2, [fp, #-24]
	ldr	r3, [r3, r2, lsl #2]
	str	r3, [fp, #-16]
	movw	r3, #:lower16:stbi__zlength_extra
	movt	r3, #:upper16:stbi__zlength_extra
	ldr	r2, [fp, #-24]
	ldr	r3, [r3, r2, lsl #2]
	cmp	r3, #0
	beq	.L840
	movw	r3, #:lower16:stbi__zlength_extra
	movt	r3, #:upper16:stbi__zlength_extra
	ldr	r2, [fp, #-24]
	ldr	r3, [r3, r2, lsl #2]
	mov	r1, r3
	ldr	r0, [fp, #-32]
	bl	stbi__zreceive
	mov	r2, r0
	ldr	r3, [fp, #-16]
	add	r3, r2, r3
	str	r3, [fp, #-16]
.L840:
	ldr	r3, [fp, #-32]
	add	r3, r3, #2048
	add	r3, r3, #4
	mov	r1, r3
	ldr	r0, [fp, #-32]
	bl	stbi__zhuffman_decode
	str	r0, [fp, #-24]
	ldr	r3, [fp, #-24]
	cmp	r3, #0
	bge	.L841
	mov	r3, #0
	b	.L835
.L841:
	movw	r3, #:lower16:stbi__zdist_base
	movt	r3, #:upper16:stbi__zdist_base
	ldr	r2, [fp, #-24]
	ldr	r3, [r3, r2, lsl #2]
	str	r3, [fp, #-20]
	movw	r3, #:lower16:stbi__zdist_extra
	movt	r3, #:upper16:stbi__zdist_extra
	ldr	r2, [fp, #-24]
	ldr	r3, [r3, r2, lsl #2]
	cmp	r3, #0
	beq	.L842
	movw	r3, #:lower16:stbi__zdist_extra
	movt	r3, #:upper16:stbi__zdist_extra
	ldr	r2, [fp, #-24]
	ldr	r3, [r3, r2, lsl #2]
	mov	r1, r3
	ldr	r0, [fp, #-32]
	bl	stbi__zreceive
	mov	r2, r0
	ldr	r3, [fp, #-20]
	add	r3, r2, r3
	str	r3, [fp, #-20]
.L842:
	ldr	r3, [fp, #-32]
	ldr	r3, [r3, #20]
	ldr	r2, [fp, #-8]
	sub	r3, r2, r3
	ldr	r2, [fp, #-20]
	cmp	r2, r3
	ble	.L843
	mov	r3, #0
	b	.L835
.L843:
	ldr	r3, [fp, #-16]
	ldr	r2, [fp, #-8]
	add	r2, r2, r3
	ldr	r3, [fp, #-32]
	ldr	r3, [r3, #24]
	cmp	r2, r3
	bls	.L844
	ldr	r2, [fp, #-16]
	ldr	r1, [fp, #-8]
	ldr	r0, [fp, #-32]
	bl	stbi__zexpand
	mov	r3, r0
	cmp	r3, #0
	bne	.L845
	mov	r3, #0
	b	.L835
.L845:
	ldr	r3, [fp, #-32]
	ldr	r3, [r3, #16]
	str	r3, [fp, #-8]
.L844:
	ldr	r3, [fp, #-20]
	rsb	r3, r3, #0
	ldr	r2, [fp, #-8]
	add	r3, r2, r3
	str	r3, [fp, #-12]
	ldr	r3, [fp, #-20]
	cmp	r3, #1
	bne	.L846
	ldr	r3, [fp, #-12]
	ldrb	r3, [r3]
	strb	r3, [fp, #-25]
	ldr	r3, [fp, #-16]
	cmp	r3, #0
	beq	.L850
.L848:
	ldr	r3, [fp, #-8]
	add	r2, r3, #1
	str	r2, [fp, #-8]
	ldrb	r2, [fp, #-25]
	strb	r2, [r3]
	ldr	r3, [fp, #-16]
	sub	r3, r3, #1
	str	r3, [fp, #-16]
	ldr	r3, [fp, #-16]
	cmp	r3, #0
	bne	.L848
	b	.L850
.L846:
	ldr	r3, [fp, #-16]
	cmp	r3, #0
	beq	.L850
.L849:
	ldr	r2, [fp, #-12]
	add	r3, r2, #1
	str	r3, [fp, #-12]
	ldr	r3, [fp, #-8]
	add	r1, r3, #1
	str	r1, [fp, #-8]
	ldrb	r2, [r2]	@ zero_extendqisi2
	strb	r2, [r3]
	ldr	r3, [fp, #-16]
	sub	r3, r3, #1
	str	r3, [fp, #-16]
	ldr	r3, [fp, #-16]
	cmp	r3, #0
	bne	.L849
	b	.L850
.L835:
	mov	r0, r3
	sub	sp, fp, #4
	@ sp needed
	pop	{fp, pc}
	.size	stbi__parse_huffman_block, .-stbi__parse_huffman_block
	.align	2
	.syntax unified
	.arm
	.fpu vfpv3-d16
	.type	stbi__compute_huffman_codes, %function
stbi__compute_huffman_codes:
	@ args = 0, pretend = 0, frame = 2544
	@ frame_needed = 1, uses_anonymous_args = 0
	push	{fp, lr}
	add	fp, sp, #4
	sub	sp, sp, #2544
	str	r0, [fp, #-2544]
	mov	r1, #5
	ldr	r0, [fp, #-2544]
	bl	stbi__zreceive
	mov	r3, r0
	add	r3, r3, #256
	add	r3, r3, #1
	str	r3, [fp, #-24]
	mov	r1, #5
	ldr	r0, [fp, #-2544]
	bl	stbi__zreceive
	mov	r3, r0
	add	r3, r3, #1
	str	r3, [fp, #-28]
	mov	r1, #4
	ldr	r0, [fp, #-2544]
	bl	stbi__zreceive
	mov	r3, r0
	add	r3, r3, #4
	str	r3, [fp, #-32]
	ldr	r2, [fp, #-24]
	ldr	r3, [fp, #-28]
	add	r3, r2, r3
	str	r3, [fp, #-36]
	sub	r3, fp, #2528
	sub	r3, r3, #4
	sub	r3, r3, #4
	mov	r2, #19
	mov	r1, #0
	mov	r0, r3
	bl	memset
	mov	r3, #0
	str	r3, [fp, #-8]
	b	.L852
.L853:
	mov	r1, #3
	ldr	r0, [fp, #-2544]
	bl	stbi__zreceive
	mov	r3, r0
	str	r3, [fp, #-40]
	movw	r3, #:lower16:length_dezigzag.9476
	movt	r3, #:upper16:length_dezigzag.9476
	ldr	r2, [fp, #-8]
	add	r3, r3, r2
	ldrb	r3, [r3]	@ zero_extendqisi2
	ldr	r2, [fp, #-40]
	uxtb	r2, r2
	sub	r1, fp, #4
	add	r3, r1, r3
	strb	r2, [r3, #-2532]
	ldr	r3, [fp, #-8]
	add	r3, r3, #1
	str	r3, [fp, #-8]
.L852:
	ldr	r2, [fp, #-8]
	ldr	r3, [fp, #-32]
	cmp	r2, r3
	blt	.L853
	sub	r1, fp, #2528
	sub	r1, r1, #4
	sub	r1, r1, #4
	sub	r3, fp, #2048
	sub	r3, r3, #4
	sub	r3, r3, #8
	mov	r2, #19
	mov	r0, r3
	bl	stbi__zbuild_huffman
	mov	r3, r0
	cmp	r3, #0
	bne	.L854
	mov	r3, #0
	b	.L869
.L854:
	mov	r3, #0
	str	r3, [fp, #-12]
	b	.L856
.L865:
	sub	r3, fp, #2048
	sub	r3, r3, #4
	sub	r3, r3, #8
	mov	r1, r3
	ldr	r0, [fp, #-2544]
	bl	stbi__zhuffman_decode
	str	r0, [fp, #-16]
	ldr	r3, [fp, #-16]
	cmp	r3, #0
	blt	.L857
	ldr	r3, [fp, #-16]
	cmp	r3, #18
	ble	.L858
.L857:
	mov	r3, #0
	b	.L869
.L858:
	ldr	r3, [fp, #-16]
	cmp	r3, #15
	bgt	.L859
	ldr	r3, [fp, #-12]
	add	r2, r3, #1
	str	r2, [fp, #-12]
	ldr	r2, [fp, #-16]
	uxtb	r2, r2
	sub	r1, fp, #4
	add	r3, r1, r3
	strb	r2, [r3, #-2512]
	b	.L856
.L859:
	mov	r3, #0
	strb	r3, [fp, #-17]
	ldr	r3, [fp, #-16]
	cmp	r3, #16
	bne	.L860
	mov	r1, #2
	ldr	r0, [fp, #-2544]
	bl	stbi__zreceive
	mov	r3, r0
	add	r3, r3, #3
	str	r3, [fp, #-16]
	ldr	r3, [fp, #-12]
	cmp	r3, #0
	bne	.L861
	mov	r3, #0
	b	.L869
.L861:
	ldr	r3, [fp, #-12]
	sub	r3, r3, #1
	sub	r2, fp, #4
	add	r3, r2, r3
	ldrb	r3, [r3, #-2512]
	strb	r3, [fp, #-17]
	b	.L862
.L860:
	ldr	r3, [fp, #-16]
	cmp	r3, #17
	bne	.L863
	mov	r1, #3
	ldr	r0, [fp, #-2544]
	bl	stbi__zreceive
	mov	r3, r0
	add	r3, r3, #3
	str	r3, [fp, #-16]
	b	.L862
.L863:
	mov	r1, #7
	ldr	r0, [fp, #-2544]
	bl	stbi__zreceive
	mov	r3, r0
	add	r3, r3, #11
	str	r3, [fp, #-16]
.L862:
	ldr	r2, [fp, #-36]
	ldr	r3, [fp, #-12]
	sub	r3, r2, r3
	ldr	r2, [fp, #-16]
	cmp	r2, r3
	ble	.L864
	mov	r3, #0
	b	.L869
.L864:
	ldr	r3, [fp, #-12]
	sub	r2, fp, #2512
	sub	r2, r2, #4
	add	r3, r2, r3
	ldrb	r1, [fp, #-17]	@ zero_extendqisi2
	ldr	r2, [fp, #-16]
	mov	r0, r3
	bl	memset
	ldr	r2, [fp, #-12]
	ldr	r3, [fp, #-16]
	add	r3, r2, r3
	str	r3, [fp, #-12]
.L856:
	ldr	r2, [fp, #-12]
	ldr	r3, [fp, #-36]
	cmp	r2, r3
	blt	.L865
	ldr	r2, [fp, #-12]
	ldr	r3, [fp, #-36]
	cmp	r2, r3
	beq	.L866
	mov	r3, #0
	b	.L869
.L866:
	ldr	r3, [fp, #-2544]
	add	r3, r3, #32
	sub	r1, fp, #2512
	sub	r1, r1, #4
	ldr	r2, [fp, #-24]
	mov	r0, r3
	bl	stbi__zbuild_huffman
	mov	r3, r0
	cmp	r3, #0
	bne	.L867
	mov	r3, #0
	b	.L869
.L867:
	ldr	r3, [fp, #-2544]
	add	r3, r3, #2048
	add	r3, r3, #4
	ldr	r2, [fp, #-24]
	sub	r1, fp, #2512
	sub	r1, r1, #4
	add	r1, r1, r2
	ldr	r2, [fp, #-28]
	mov	r0, r3
	bl	stbi__zbuild_huffman
	mov	r3, r0
	cmp	r3, #0
	bne	.L868
	mov	r3, #0
	b	.L869
.L868:
	mov	r3, #1
.L869:
	mov	r0, r3
	sub	sp, fp, #4
	@ sp needed
	pop	{fp, pc}
	.size	stbi__compute_huffman_codes, .-stbi__compute_huffman_codes
	.align	2
	.syntax unified
	.arm
	.fpu vfpv3-d16
	.type	stbi__parse_uncompressed_block, %function
stbi__parse_uncompressed_block:
	@ args = 0, pretend = 0, frame = 24
	@ frame_needed = 1, uses_anonymous_args = 0
	push	{r4, fp, lr}
	add	fp, sp, #8
	sub	sp, sp, #28
	str	r0, [fp, #-32]
	ldr	r3, [fp, #-32]
	ldr	r3, [r3, #8]
	and	r3, r3, #7
	cmp	r3, #0
	beq	.L871
	ldr	r3, [fp, #-32]
	ldr	r3, [r3, #8]
	and	r3, r3, #7
	mov	r1, r3
	ldr	r0, [fp, #-32]
	bl	stbi__zreceive
.L871:
	mov	r3, #0
	str	r3, [fp, #-16]
	b	.L872
.L873:
	ldr	r3, [fp, #-32]
	ldr	r1, [r3, #12]
	ldr	r3, [fp, #-16]
	add	r2, r3, #1
	str	r2, [fp, #-16]
	uxtb	r2, r1
	sub	r1, fp, #12
	add	r3, r1, r3
	strb	r2, [r3, #-16]
	ldr	r3, [fp, #-32]
	ldr	r3, [r3, #12]
	lsr	r2, r3, #8
	ldr	r3, [fp, #-32]
	str	r2, [r3, #12]
	ldr	r3, [fp, #-32]
	ldr	r3, [r3, #8]
	sub	r2, r3, #8
	ldr	r3, [fp, #-32]
	str	r2, [r3, #8]
.L872:
	ldr	r3, [fp, #-32]
	ldr	r3, [r3, #8]
	cmp	r3, #0
	bgt	.L873
	b	.L874
.L875:
	ldr	r4, [fp, #-16]
	add	r3, r4, #1
	str	r3, [fp, #-16]
	ldr	r0, [fp, #-32]
	bl	stbi__zget8
	mov	r3, r0
	mov	r2, r3
	sub	r3, fp, #12
	add	r3, r3, r4
	strb	r2, [r3, #-16]
.L874:
	ldr	r3, [fp, #-16]
	cmp	r3, #3
	ble	.L875
	ldrb	r3, [fp, #-27]	@ zero_extendqisi2
	lsl	r3, r3, #8
	ldrb	r2, [fp, #-28]	@ zero_extendqisi2
	add	r3, r3, r2
	str	r3, [fp, #-20]
	ldrb	r3, [fp, #-25]	@ zero_extendqisi2
	lsl	r3, r3, #8
	ldrb	r2, [fp, #-26]	@ zero_extendqisi2
	add	r3, r3, r2
	str	r3, [fp, #-24]
	ldr	r3, [fp, #-20]
	eor	r3, r3, #65280
	eor	r3, r3, #255
	ldr	r2, [fp, #-24]
	cmp	r2, r3
	beq	.L876
	mov	r3, #0
	b	.L880
.L876:
	ldr	r3, [fp, #-32]
	ldr	r2, [r3]
	ldr	r3, [fp, #-20]
	add	r2, r2, r3
	ldr	r3, [fp, #-32]
	ldr	r3, [r3, #4]
	cmp	r2, r3
	bls	.L878
	mov	r3, #0
	b	.L880
.L878:
	ldr	r3, [fp, #-32]
	ldr	r2, [r3, #16]
	ldr	r3, [fp, #-20]
	add	r2, r2, r3
	ldr	r3, [fp, #-32]
	ldr	r3, [r3, #24]
	cmp	r2, r3
	bls	.L879
	ldr	r3, [fp, #-32]
	ldr	r3, [r3, #16]
	ldr	r2, [fp, #-20]
	mov	r1, r3
	ldr	r0, [fp, #-32]
	bl	stbi__zexpand
	mov	r3, r0
	cmp	r3, #0
	bne	.L879
	mov	r3, #0
	b	.L880
.L879:
	ldr	r3, [fp, #-32]
	ldr	r0, [r3, #16]
	ldr	r3, [fp, #-32]
	ldr	r3, [r3]
	ldr	r2, [fp, #-20]
	mov	r1, r3
	bl	memcpy
	ldr	r3, [fp, #-32]
	ldr	r2, [r3]
	ldr	r3, [fp, #-20]
	add	r2, r2, r3
	ldr	r3, [fp, #-32]
	str	r2, [r3]
	ldr	r3, [fp, #-32]
	ldr	r2, [r3, #16]
	ldr	r3, [fp, #-20]
	add	r2, r2, r3
	ldr	r3, [fp, #-32]
	str	r2, [r3, #16]
	mov	r3, #1
.L880:
	mov	r0, r3
	sub	sp, fp, #8
	@ sp needed
	pop	{r4, fp, pc}
	.size	stbi__parse_uncompressed_block, .-stbi__parse_uncompressed_block
	.align	2
	.syntax unified
	.arm
	.fpu vfpv3-d16
	.type	stbi__parse_zlib_header, %function
stbi__parse_zlib_header:
	@ args = 0, pretend = 0, frame = 24
	@ frame_needed = 1, uses_anonymous_args = 0
	push	{fp, lr}
	add	fp, sp, #4
	sub	sp, sp, #24
	str	r0, [fp, #-24]
	ldr	r0, [fp, #-24]
	bl	stbi__zget8
	mov	r3, r0
	str	r3, [fp, #-8]
	ldr	r3, [fp, #-8]
	and	r3, r3, #15
	str	r3, [fp, #-12]
	ldr	r0, [fp, #-24]
	bl	stbi__zget8
	mov	r3, r0
	str	r3, [fp, #-16]
	ldr	r3, [fp, #-8]
	lsl	r2, r3, #8
	ldr	r3, [fp, #-16]
	add	r2, r2, r3
	movw	r3, #2115
	movt	r3, 33825
	smull	r1, r3, r3, r2
	add	r3, r3, r2
	asr	r1, r3, #4
	asr	r3, r2, #31
	sub	r1, r1, r3
	mov	r3, r1
	lsl	r3, r3, #5
	sub	r3, r3, r1
	sub	r1, r2, r3
	cmp	r1, #0
	beq	.L882
	mov	r3, #0
	b	.L883
.L882:
	ldr	r3, [fp, #-16]
	and	r3, r3, #32
	cmp	r3, #0
	beq	.L884
	mov	r3, #0
	b	.L883
.L884:
	ldr	r3, [fp, #-12]
	cmp	r3, #8
	beq	.L885
	mov	r3, #0
	b	.L883
.L885:
	mov	r3, #1
.L883:
	mov	r0, r3
	sub	sp, fp, #4
	@ sp needed
	pop	{fp, pc}
	.size	stbi__parse_zlib_header, .-stbi__parse_zlib_header
	.section	.rodata
	.align	2
	.type	stbi__zdefault_length, %object
	.size	stbi__zdefault_length, 288
stbi__zdefault_length:
	.byte	8
	.byte	8
	.byte	8
	.byte	8
	.byte	8
	.byte	8
	.byte	8
	.byte	8
	.byte	8
	.byte	8
	.byte	8
	.byte	8
	.byte	8
	.byte	8
	.byte	8
	.byte	8
	.byte	8
	.byte	8
	.byte	8
	.byte	8
	.byte	8
	.byte	8
	.byte	8
	.byte	8
	.byte	8
	.byte	8
	.byte	8
	.byte	8
	.byte	8
	.byte	8
	.byte	8
	.byte	8
	.byte	8
	.byte	8
	.byte	8
	.byte	8
	.byte	8
	.byte	8
	.byte	8
	.byte	8
	.byte	8
	.byte	8
	.byte	8
	.byte	8
	.byte	8
	.byte	8
	.byte	8
	.byte	8
	.byte	8
	.byte	8
	.byte	8
	.byte	8
	.byte	8
	.byte	8
	.byte	8
	.byte	8
	.byte	8
	.byte	8
	.byte	8
	.byte	8
	.byte	8
	.byte	8
	.byte	8
	.byte	8
	.byte	8
	.byte	8
	.byte	8
	.byte	8
	.byte	8
	.byte	8
	.byte	8
	.byte	8
	.byte	8
	.byte	8
	.byte	8
	.byte	8
	.byte	8
	.byte	8
	.byte	8
	.byte	8
	.byte	8
	.byte	8
	.byte	8
	.byte	8
	.byte	8
	.byte	8
	.byte	8
	.byte	8
	.byte	8
	.byte	8
	.byte	8
	.byte	8
	.byte	8
	.byte	8
	.byte	8
	.byte	8
	.byte	8
	.byte	8
	.byte	8
	.byte	8
	.byte	8
	.byte	8
	.byte	8
	.byte	8
	.byte	8
	.byte	8
	.byte	8
	.byte	8
	.byte	8
	.byte	8
	.byte	8
	.byte	8
	.byte	8
	.byte	8
	.byte	8
	.byte	8
	.byte	8
	.byte	8
	.byte	8
	.byte	8
	.byte	8
	.byte	8
	.byte	8
	.byte	8
	.byte	8
	.byte	8
	.byte	8
	.byte	8
	.byte	8
	.byte	8
	.byte	8
	.byte	8
	.byte	8
	.byte	8
	.byte	8
	.byte	8
	.byte	8
	.byte	8
	.byte	8
	.byte	8
	.byte	8
	.byte	8
	.byte	8
	.byte	8
	.byte	9
	.byte	9
	.byte	9
	.byte	9
	.byte	9
	.byte	9
	.byte	9
	.byte	9
	.byte	9
	.byte	9
	.byte	9
	.byte	9
	.byte	9
	.byte	9
	.byte	9
	.byte	9
	.byte	9
	.byte	9
	.byte	9
	.byte	9
	.byte	9
	.byte	9
	.byte	9
	.byte	9
	.byte	9
	.byte	9
	.byte	9
	.byte	9
	.byte	9
	.byte	9
	.byte	9
	.byte	9
	.byte	9
	.byte	9
	.byte	9
	.byte	9
	.byte	9
	.byte	9
	.byte	9
	.byte	9
	.byte	9
	.byte	9
	.byte	9
	.byte	9
	.byte	9
	.byte	9
	.byte	9
	.byte	9
	.byte	9
	.byte	9
	.byte	9
	.byte	9
	.byte	9
	.byte	9
	.byte	9
	.byte	9
	.byte	9
	.byte	9
	.byte	9
	.byte	9
	.byte	9
	.byte	9
	.byte	9
	.byte	9
	.byte	9
	.byte	9
	.byte	9
	.byte	9
	.byte	9
	.byte	9
	.byte	9
	.byte	9
	.byte	9
	.byte	9
	.byte	9
	.byte	9
	.byte	9
	.byte	9
	.byte	9
	.byte	9
	.byte	9
	.byte	9
	.byte	9
	.byte	9
	.byte	9
	.byte	9
	.byte	9
	.byte	9
	.byte	9
	.byte	9
	.byte	9
	.byte	9
	.byte	9
	.byte	9
	.byte	9
	.byte	9
	.byte	9
	.byte	9
	.byte	9
	.byte	9
	.byte	9
	.byte	9
	.byte	9
	.byte	9
	.byte	9
	.byte	9
	.byte	9
	.byte	9
	.byte	9
	.byte	9
	.byte	9
	.byte	9
	.byte	7
	.byte	7
	.byte	7
	.byte	7
	.byte	7
	.byte	7
	.byte	7
	.byte	7
	.byte	7
	.byte	7
	.byte	7
	.byte	7
	.byte	7
	.byte	7
	.byte	7
	.byte	7
	.byte	7
	.byte	7
	.byte	7
	.byte	7
	.byte	7
	.byte	7
	.byte	7
	.byte	7
	.byte	8
	.byte	8
	.byte	8
	.byte	8
	.byte	8
	.byte	8
	.byte	8
	.byte	8
	.align	2
	.type	stbi__zdefault_distance, %object
	.size	stbi__zdefault_distance, 32
stbi__zdefault_distance:
	.byte	5
	.byte	5
	.byte	5
	.byte	5
	.byte	5
	.byte	5
	.byte	5
	.byte	5
	.byte	5
	.byte	5
	.byte	5
	.byte	5
	.byte	5
	.byte	5
	.byte	5
	.byte	5
	.byte	5
	.byte	5
	.byte	5
	.byte	5
	.byte	5
	.byte	5
	.byte	5
	.byte	5
	.byte	5
	.byte	5
	.byte	5
	.byte	5
	.byte	5
	.byte	5
	.byte	5
	.byte	5
	.text
	.align	2
	.syntax unified
	.arm
	.fpu vfpv3-d16
	.type	stbi__parse_zlib, %function
stbi__parse_zlib:
	@ args = 0, pretend = 0, frame = 16
	@ frame_needed = 1, uses_anonymous_args = 0
	push	{fp, lr}
	add	fp, sp, #4
	sub	sp, sp, #16
	str	r0, [fp, #-16]
	str	r1, [fp, #-20]
	ldr	r3, [fp, #-20]
	cmp	r3, #0
	beq	.L887
	ldr	r0, [fp, #-16]
	bl	stbi__parse_zlib_header
	mov	r3, r0
	cmp	r3, #0
	bne	.L887
	mov	r3, #0
	b	.L888
.L887:
	ldr	r3, [fp, #-16]
	mov	r2, #0
	str	r2, [r3, #8]
	ldr	r3, [fp, #-16]
	mov	r2, #0
	str	r2, [r3, #12]
.L895:
	mov	r1, #1
	ldr	r0, [fp, #-16]
	bl	stbi__zreceive
	mov	r3, r0
	str	r3, [fp, #-8]
	mov	r1, #2
	ldr	r0, [fp, #-16]
	bl	stbi__zreceive
	mov	r3, r0
	str	r3, [fp, #-12]
	ldr	r3, [fp, #-12]
	cmp	r3, #0
	bne	.L889
	ldr	r0, [fp, #-16]
	bl	stbi__parse_uncompressed_block
	mov	r3, r0
	cmp	r3, #0
	bne	.L890
	mov	r3, #0
	b	.L888
.L889:
	ldr	r3, [fp, #-12]
	cmp	r3, #3
	bne	.L891
	mov	r3, #0
	b	.L888
.L891:
	ldr	r3, [fp, #-12]
	cmp	r3, #1
	bne	.L892
	ldr	r3, [fp, #-16]
	add	r3, r3, #32
	mov	r2, #288
	movw	r1, #:lower16:stbi__zdefault_length
	movt	r1, #:upper16:stbi__zdefault_length
	mov	r0, r3
	bl	stbi__zbuild_huffman
	mov	r3, r0
	cmp	r3, #0
	bne	.L893
	mov	r3, #0
	b	.L888
.L893:
	ldr	r3, [fp, #-16]
	add	r3, r3, #2048
	add	r3, r3, #4
	mov	r2, #32
	movw	r1, #:lower16:stbi__zdefault_distance
	movt	r1, #:upper16:stbi__zdefault_distance
	mov	r0, r3
	bl	stbi__zbuild_huffman
	mov	r3, r0
	cmp	r3, #0
	bne	.L894
	mov	r3, #0
	b	.L888
.L892:
	ldr	r0, [fp, #-16]
	bl	stbi__compute_huffman_codes
	mov	r3, r0
	cmp	r3, #0
	bne	.L894
	mov	r3, #0
	b	.L888
.L894:
	ldr	r0, [fp, #-16]
	bl	stbi__parse_huffman_block
	mov	r3, r0
	cmp	r3, #0
	bne	.L890
	mov	r3, #0
	b	.L888
.L890:
	ldr	r3, [fp, #-8]
	cmp	r3, #0
	beq	.L895
	mov	r3, #1
.L888:
	mov	r0, r3
	sub	sp, fp, #4
	@ sp needed
	pop	{fp, pc}
	.size	stbi__parse_zlib, .-stbi__parse_zlib
	.align	2
	.syntax unified
	.arm
	.fpu vfpv3-d16
	.type	stbi__do_zlib, %function
stbi__do_zlib:
	@ args = 4, pretend = 0, frame = 16
	@ frame_needed = 1, uses_anonymous_args = 0
	push	{fp, lr}
	add	fp, sp, #4
	sub	sp, sp, #16
	str	r0, [fp, #-8]
	str	r1, [fp, #-12]
	str	r2, [fp, #-16]
	str	r3, [fp, #-20]
	ldr	r3, [fp, #-8]
	ldr	r2, [fp, #-12]
	str	r2, [r3, #20]
	ldr	r3, [fp, #-8]
	ldr	r2, [fp, #-12]
	str	r2, [r3, #16]
	ldr	r3, [fp, #-16]
	ldr	r2, [fp, #-12]
	add	r2, r2, r3
	ldr	r3, [fp, #-8]
	str	r2, [r3, #24]
	ldr	r3, [fp, #-8]
	ldr	r2, [fp, #-20]
	str	r2, [r3, #28]
	ldr	r1, [fp, #4]
	ldr	r0, [fp, #-8]
	bl	stbi__parse_zlib
	mov	r3, r0
	mov	r0, r3
	sub	sp, fp, #4
	@ sp needed
	pop	{fp, pc}
	.size	stbi__do_zlib, .-stbi__do_zlib
	.align	2
	.global	stbi_zlib_decode_malloc_guesssize
	.syntax unified
	.arm
	.fpu vfpv3-d16
	.type	stbi_zlib_decode_malloc_guesssize, %function
stbi_zlib_decode_malloc_guesssize:
	@ args = 0, pretend = 0, frame = 4096
	@ frame_needed = 1, uses_anonymous_args = 0
	push	{fp, lr}
	add	fp, sp, #4
	sub	sp, sp, #4096
	sub	sp, sp, #8
	str	r0, [fp, #-4088]
	str	r1, [fp, #-4092]
	sub	r1, fp, #4096
	str	r2, [r1]
	sub	r2, fp, #4096
	sub	r2, r2, #4
	str	r3, [r2]
	sub	r3, fp, #4096
	ldr	r3, [r3]
	mov	r0, r3
	bl	stbi__malloc
	str	r0, [fp, #-8]
	ldr	r3, [fp, #-8]
	cmp	r3, #0
	bne	.L899
	mov	r3, #0
	b	.L903
.L899:
	ldr	r3, [fp, #-4088]
	str	r3, [fp, #-4080]
	ldr	r3, [fp, #-4092]
	ldr	r2, [fp, #-4088]
	add	r3, r2, r3
	str	r3, [fp, #-4076]
	sub	r0, fp, #4064
	sub	r0, r0, #4
	sub	r0, r0, #12
	mov	r3, #1
	str	r3, [sp]
	mov	r3, #1
	sub	r2, fp, #4096
	ldr	r2, [r2]
	ldr	r1, [fp, #-8]
	bl	stbi__do_zlib
	mov	r3, r0
	cmp	r3, #0
	beq	.L901
	sub	r3, fp, #4096
	sub	r3, r3, #4
	ldr	r3, [r3]
	cmp	r3, #0
	beq	.L902
	ldr	r2, [fp, #-4064]
	ldr	r3, [fp, #-4060]
	sub	r2, r2, r3
	sub	r3, fp, #4096
	sub	r3, r3, #4
	ldr	r3, [r3]
	str	r2, [r3]
.L902:
	ldr	r3, [fp, #-4060]
	b	.L903
.L901:
	ldr	r3, [fp, #-4060]
	mov	r0, r3
	bl	free
	mov	r3, #0
.L903:
	mov	r0, r3
	sub	sp, fp, #4
	@ sp needed
	pop	{fp, pc}
	.size	stbi_zlib_decode_malloc_guesssize, .-stbi_zlib_decode_malloc_guesssize
	.align	2
	.global	stbi_zlib_decode_malloc
	.syntax unified
	.arm
	.fpu vfpv3-d16
	.type	stbi_zlib_decode_malloc, %function
stbi_zlib_decode_malloc:
	@ args = 0, pretend = 0, frame = 16
	@ frame_needed = 1, uses_anonymous_args = 0
	push	{fp, lr}
	add	fp, sp, #4
	sub	sp, sp, #16
	str	r0, [fp, #-8]
	str	r1, [fp, #-12]
	str	r2, [fp, #-16]
	ldr	r3, [fp, #-16]
	mov	r2, #16384
	ldr	r1, [fp, #-12]
	ldr	r0, [fp, #-8]
	bl	stbi_zlib_decode_malloc_guesssize
	mov	r3, r0
	mov	r0, r3
	sub	sp, fp, #4
	@ sp needed
	pop	{fp, pc}
	.size	stbi_zlib_decode_malloc, .-stbi_zlib_decode_malloc
	.align	2
	.global	stbi_zlib_decode_malloc_guesssize_headerflag
	.syntax unified
	.arm
	.fpu vfpv3-d16
	.type	stbi_zlib_decode_malloc_guesssize_headerflag, %function
stbi_zlib_decode_malloc_guesssize_headerflag:
	@ args = 4, pretend = 0, frame = 4096
	@ frame_needed = 1, uses_anonymous_args = 0
	push	{fp, lr}
	add	fp, sp, #4
	sub	sp, sp, #4096
	sub	sp, sp, #8
	str	r0, [fp, #-4088]
	str	r1, [fp, #-4092]
	sub	r1, fp, #4096
	str	r2, [r1]
	sub	r2, fp, #4096
	sub	r2, r2, #4
	str	r3, [r2]
	sub	r3, fp, #4096
	ldr	r3, [r3]
	mov	r0, r3
	bl	stbi__malloc
	str	r0, [fp, #-8]
	ldr	r3, [fp, #-8]
	cmp	r3, #0
	bne	.L907
	mov	r3, #0
	b	.L911
.L907:
	ldr	r3, [fp, #-4088]
	str	r3, [fp, #-4080]
	ldr	r3, [fp, #-4092]
	ldr	r2, [fp, #-4088]
	add	r3, r2, r3
	str	r3, [fp, #-4076]
	sub	r0, fp, #4064
	sub	r0, r0, #4
	sub	r0, r0, #12
	ldr	r3, [fp, #4]
	str	r3, [sp]
	mov	r3, #1
	sub	r2, fp, #4096
	ldr	r2, [r2]
	ldr	r1, [fp, #-8]
	bl	stbi__do_zlib
	mov	r3, r0
	cmp	r3, #0
	beq	.L909
	sub	r3, fp, #4096
	sub	r3, r3, #4
	ldr	r3, [r3]
	cmp	r3, #0
	beq	.L910
	ldr	r2, [fp, #-4064]
	ldr	r3, [fp, #-4060]
	sub	r2, r2, r3
	sub	r3, fp, #4096
	sub	r3, r3, #4
	ldr	r3, [r3]
	str	r2, [r3]
.L910:
	ldr	r3, [fp, #-4060]
	b	.L911
.L909:
	ldr	r3, [fp, #-4060]
	mov	r0, r3
	bl	free
	mov	r3, #0
.L911:
	mov	r0, r3
	sub	sp, fp, #4
	@ sp needed
	pop	{fp, pc}
	.size	stbi_zlib_decode_malloc_guesssize_headerflag, .-stbi_zlib_decode_malloc_guesssize_headerflag
	.align	2
	.global	stbi_zlib_decode_buffer
	.syntax unified
	.arm
	.fpu vfpv3-d16
	.type	stbi_zlib_decode_buffer, %function
stbi_zlib_decode_buffer:
	@ args = 0, pretend = 0, frame = 4088
	@ frame_needed = 1, uses_anonymous_args = 0
	push	{fp, lr}
	add	fp, sp, #4
	sub	sp, sp, #4096
	str	r0, [fp, #-4080]
	str	r1, [fp, #-4084]
	str	r2, [fp, #-4088]
	str	r3, [fp, #-4092]
	ldr	r3, [fp, #-4088]
	str	r3, [fp, #-4076]
	ldr	r3, [fp, #-4092]
	ldr	r2, [fp, #-4088]
	add	r3, r2, r3
	str	r3, [fp, #-4072]
	sub	r0, fp, #4064
	sub	r0, r0, #4
	sub	r0, r0, #8
	mov	r3, #1
	str	r3, [sp]
	mov	r3, #0
	ldr	r2, [fp, #-4084]
	ldr	r1, [fp, #-4080]
	bl	stbi__do_zlib
	mov	r3, r0
	cmp	r3, #0
	beq	.L913
	ldr	r2, [fp, #-4060]
	ldr	r3, [fp, #-4056]
	sub	r3, r2, r3
	b	.L915
.L913:
	mvn	r3, #0
.L915:
	mov	r0, r3
	sub	sp, fp, #4
	@ sp needed
	pop	{fp, pc}
	.size	stbi_zlib_decode_buffer, .-stbi_zlib_decode_buffer
	.align	2
	.global	stbi_zlib_decode_noheader_malloc
	.syntax unified
	.arm
	.fpu vfpv3-d16
	.type	stbi_zlib_decode_noheader_malloc, %function
stbi_zlib_decode_noheader_malloc:
	@ args = 0, pretend = 0, frame = 4096
	@ frame_needed = 1, uses_anonymous_args = 0
	push	{fp, lr}
	add	fp, sp, #4
	sub	sp, sp, #4096
	sub	sp, sp, #8
	str	r0, [fp, #-4088]
	str	r1, [fp, #-4092]
	sub	r3, fp, #4096
	str	r2, [r3]
	mov	r0, #16384
	bl	stbi__malloc
	str	r0, [fp, #-8]
	ldr	r3, [fp, #-8]
	cmp	r3, #0
	bne	.L917
	mov	r3, #0
	b	.L921
.L917:
	ldr	r3, [fp, #-4088]
	str	r3, [fp, #-4080]
	ldr	r3, [fp, #-4092]
	ldr	r2, [fp, #-4088]
	add	r3, r2, r3
	str	r3, [fp, #-4076]
	sub	r0, fp, #4064
	sub	r0, r0, #4
	sub	r0, r0, #12
	mov	r3, #0
	str	r3, [sp]
	mov	r3, #1
	mov	r2, #16384
	ldr	r1, [fp, #-8]
	bl	stbi__do_zlib
	mov	r3, r0
	cmp	r3, #0
	beq	.L919
	sub	r3, fp, #4096
	ldr	r3, [r3]
	cmp	r3, #0
	beq	.L920
	ldr	r2, [fp, #-4064]
	ldr	r3, [fp, #-4060]
	sub	r2, r2, r3
	sub	r3, fp, #4096
	ldr	r3, [r3]
	str	r2, [r3]
.L920:
	ldr	r3, [fp, #-4060]
	b	.L921
.L919:
	ldr	r3, [fp, #-4060]
	mov	r0, r3
	bl	free
	mov	r3, #0
.L921:
	mov	r0, r3
	sub	sp, fp, #4
	@ sp needed
	pop	{fp, pc}
	.size	stbi_zlib_decode_noheader_malloc, .-stbi_zlib_decode_noheader_malloc
	.align	2
	.global	stbi_zlib_decode_noheader_buffer
	.syntax unified
	.arm
	.fpu vfpv3-d16
	.type	stbi_zlib_decode_noheader_buffer, %function
stbi_zlib_decode_noheader_buffer:
	@ args = 0, pretend = 0, frame = 4088
	@ frame_needed = 1, uses_anonymous_args = 0
	push	{fp, lr}
	add	fp, sp, #4
	sub	sp, sp, #4096
	str	r0, [fp, #-4080]
	str	r1, [fp, #-4084]
	str	r2, [fp, #-4088]
	str	r3, [fp, #-4092]
	ldr	r3, [fp, #-4088]
	str	r3, [fp, #-4076]
	ldr	r3, [fp, #-4092]
	ldr	r2, [fp, #-4088]
	add	r3, r2, r3
	str	r3, [fp, #-4072]
	sub	r0, fp, #4064
	sub	r0, r0, #4
	sub	r0, r0, #8
	mov	r3, #0
	str	r3, [sp]
	mov	r3, #0
	ldr	r2, [fp, #-4084]
	ldr	r1, [fp, #-4080]
	bl	stbi__do_zlib
	mov	r3, r0
	cmp	r3, #0
	beq	.L923
	ldr	r2, [fp, #-4060]
	ldr	r3, [fp, #-4056]
	sub	r3, r2, r3
	b	.L925
.L923:
	mvn	r3, #0
.L925:
	mov	r0, r3
	sub	sp, fp, #4
	@ sp needed
	pop	{fp, pc}
	.size	stbi_zlib_decode_noheader_buffer, .-stbi_zlib_decode_noheader_buffer
	.align	2
	.syntax unified
	.arm
	.fpu vfpv3-d16
	.type	stbi__get_chunk_header, %function
stbi__get_chunk_header:
	@ args = 0, pretend = 0, frame = 16
	@ frame_needed = 1, uses_anonymous_args = 0
	push	{fp, lr}
	add	fp, sp, #4
	sub	sp, sp, #16
	str	r0, [fp, #-16]
	str	r1, [fp, #-20]
	ldr	r0, [fp, #-20]
	bl	stbi__get32be
	mov	r3, r0
	str	r3, [fp, #-12]
	ldr	r0, [fp, #-20]
	bl	stbi__get32be
	mov	r3, r0
	str	r3, [fp, #-8]
	ldr	r3, [fp, #-16]
	mov	r2, r3
	sub	r3, fp, #12
	ldm	r3, {r0, r1}
	stm	r2, {r0, r1}
	ldr	r0, [fp, #-16]
	sub	sp, fp, #4
	@ sp needed
	pop	{fp, pc}
	.size	stbi__get_chunk_header, .-stbi__get_chunk_header
	.align	2
	.syntax unified
	.arm
	.fpu vfpv3-d16
	.type	stbi__check_png_header, %function
stbi__check_png_header:
	@ args = 0, pretend = 0, frame = 16
	@ frame_needed = 1, uses_anonymous_args = 0
	push	{fp, lr}
	add	fp, sp, #4
	sub	sp, sp, #16
	str	r0, [fp, #-16]
	mov	r3, #0
	str	r3, [fp, #-8]
	b	.L929
.L932:
	ldr	r0, [fp, #-16]
	bl	stbi__get8
	mov	r3, r0
	mov	r1, r3
	movw	r3, #:lower16:png_sig.9585
	movt	r3, #:upper16:png_sig.9585
	ldr	r2, [fp, #-8]
	add	r3, r3, r2
	ldrb	r3, [r3]	@ zero_extendqisi2
	cmp	r1, r3
	beq	.L930
	mov	r3, #0
	b	.L931
.L930:
	ldr	r3, [fp, #-8]
	add	r3, r3, #1
	str	r3, [fp, #-8]
.L929:
	ldr	r3, [fp, #-8]
	cmp	r3, #7
	ble	.L932
	mov	r3, #1
.L931:
	mov	r0, r3
	sub	sp, fp, #4
	@ sp needed
	pop	{fp, pc}
	.size	stbi__check_png_header, .-stbi__check_png_header
	.data
	.align	2
	.type	first_row_filter, %object
	.size	first_row_filter, 5
first_row_filter:
	.byte	0
	.byte	1
	.byte	0
	.byte	5
	.byte	6
	.text
	.align	2
	.syntax unified
	.arm
	.fpu vfpv3-d16
	.type	stbi__paeth, %function
stbi__paeth:
	@ args = 0, pretend = 0, frame = 32
	@ frame_needed = 1, uses_anonymous_args = 0
	@ link register save eliminated.
	str	fp, [sp, #-4]!
	add	fp, sp, #0
	sub	sp, sp, #36
	str	r0, [fp, #-24]
	str	r1, [fp, #-28]
	str	r2, [fp, #-32]
	ldr	r2, [fp, #-24]
	ldr	r3, [fp, #-28]
	add	r2, r2, r3
	ldr	r3, [fp, #-32]
	sub	r3, r2, r3
	str	r3, [fp, #-8]
	ldr	r2, [fp, #-8]
	ldr	r3, [fp, #-24]
	sub	r3, r2, r3
	cmp	r3, #0
	rsblt	r3, r3, #0
	str	r3, [fp, #-12]
	ldr	r2, [fp, #-8]
	ldr	r3, [fp, #-28]
	sub	r3, r2, r3
	cmp	r3, #0
	rsblt	r3, r3, #0
	str	r3, [fp, #-16]
	ldr	r2, [fp, #-8]
	ldr	r3, [fp, #-32]
	sub	r3, r2, r3
	cmp	r3, #0
	rsblt	r3, r3, #0
	str	r3, [fp, #-20]
	ldr	r2, [fp, #-12]
	ldr	r3, [fp, #-16]
	cmp	r2, r3
	bgt	.L934
	ldr	r2, [fp, #-12]
	ldr	r3, [fp, #-20]
	cmp	r2, r3
	bgt	.L934
	ldr	r3, [fp, #-24]
	b	.L935
.L934:
	ldr	r2, [fp, #-16]
	ldr	r3, [fp, #-20]
	cmp	r2, r3
	bgt	.L936
	ldr	r3, [fp, #-28]
	b	.L935
.L936:
	ldr	r3, [fp, #-32]
.L935:
	mov	r0, r3
	add	sp, fp, #0
	@ sp needed
	ldr	fp, [sp], #4
	bx	lr
	.size	stbi__paeth, .-stbi__paeth
